
bootloader.elf:     file format elf64-littleriscv


Disassembly of section .text.init:

0000000040000000 <_start>:

  .section ".text.init"
  .option norvc
  .globl _start
_start:
  li  x1, 0
    40000000:	00000093          	li	ra,0
  li  x2, 0
    40000004:	00000113          	li	sp,0
  li  x3, 0
    40000008:	00000193          	li	gp,0
  li  x4, 0
    4000000c:	00000213          	li	tp,0
  li  x5, 0
    40000010:	00000293          	li	t0,0
  li  x6, 0
    40000014:	00000313          	li	t1,0
  li  x7, 0
    40000018:	00000393          	li	t2,0
  li  x8, 0
    4000001c:	00000413          	li	s0,0
  li  x9, 0
    40000020:	00000493          	li	s1,0
  li  x10,0
    40000024:	00000513          	li	a0,0
  li  x11,0
    40000028:	00000593          	li	a1,0
  li  x12,0
    4000002c:	00000613          	li	a2,0
  li  x13,0
    40000030:	00000693          	li	a3,0
  li  x14,0
    40000034:	00000713          	li	a4,0
  li  x15,0
    40000038:	00000793          	li	a5,0
  li  x16,0
    4000003c:	00000813          	li	a6,0
  li  x17,0
    40000040:	00000893          	li	a7,0
  li  x18,0
    40000044:	00000913          	li	s2,0
  li  x19,0
    40000048:	00000993          	li	s3,0
  li  x20,0
    4000004c:	00000a13          	li	s4,0
  li  x21,0
    40000050:	00000a93          	li	s5,0
  li  x22,0
    40000054:	00000b13          	li	s6,0
  li  x23,0
    40000058:	00000b93          	li	s7,0
  li  x24,0
    4000005c:	00000c13          	li	s8,0
  li  x25,0
    40000060:	00000c93          	li	s9,0
  li  x26,0
    40000064:	00000d13          	li	s10,0
  li  x27,0
    40000068:	00000d93          	li	s11,0
  li  x28,0
    4000006c:	00000e13          	li	t3,0
  li  x29,0
    40000070:	00000e93          	li	t4,0
  li  x30,0
    40000074:	00000f13          	li	t5,0
  li  x31,0
    40000078:	00000f93          	li	t6,0


  # enable FPU and accelerator if present
  li t0, MSTATUS_FS | MSTATUS_XS
    4000007c:	0001e2b7          	lui	t0,0x1e
  csrs mstatus, t0
    40000080:	3002a073          	csrs	mstatus,t0

  # make sure XLEN agrees with compilation choice
  li t0, 1
    40000084:	00100293          	li	t0,1
  slli t0, t0, 31
    40000088:	01f29293          	slli	t0,t0,0x1f
#if __riscv_xlen == 64
  bgez t0, 1f
    4000008c:	0002d263          	bgez	t0,40000090 <_start+0x90>
#tmp   j 2b
1:

#ifdef __riscv_flen
  # initialize FPU if we have one
  la t0, 1f
    40000090:	00000297          	auipc	t0,0x0
    40000094:	09028293          	addi	t0,t0,144 # 40000120 <_start+0x120>
  csrw mtvec, t0
    40000098:	30529073          	csrw	mtvec,t0

  fssr    x0
    4000009c:	00301073          	fssr	zero
  fmv.s.x f0, x0
    400000a0:	f0000053          	fmv.w.x	ft0,zero
  fmv.s.x f1, x0
    400000a4:	f00000d3          	fmv.w.x	ft1,zero
  fmv.s.x f2, x0
    400000a8:	f0000153          	fmv.w.x	ft2,zero
  fmv.s.x f3, x0
    400000ac:	f00001d3          	fmv.w.x	ft3,zero
  fmv.s.x f4, x0
    400000b0:	f0000253          	fmv.w.x	ft4,zero
  fmv.s.x f5, x0
    400000b4:	f00002d3          	fmv.w.x	ft5,zero
  fmv.s.x f6, x0
    400000b8:	f0000353          	fmv.w.x	ft6,zero
  fmv.s.x f7, x0
    400000bc:	f00003d3          	fmv.w.x	ft7,zero
  fmv.s.x f8, x0
    400000c0:	f0000453          	fmv.w.x	fs0,zero
  fmv.s.x f9, x0
    400000c4:	f00004d3          	fmv.w.x	fs1,zero
  fmv.s.x f10,x0
    400000c8:	f0000553          	fmv.w.x	fa0,zero
  fmv.s.x f11,x0
    400000cc:	f00005d3          	fmv.w.x	fa1,zero
  fmv.s.x f12,x0
    400000d0:	f0000653          	fmv.w.x	fa2,zero
  fmv.s.x f13,x0
    400000d4:	f00006d3          	fmv.w.x	fa3,zero
  fmv.s.x f14,x0
    400000d8:	f0000753          	fmv.w.x	fa4,zero
  fmv.s.x f15,x0
    400000dc:	f00007d3          	fmv.w.x	fa5,zero
  fmv.s.x f16,x0
    400000e0:	f0000853          	fmv.w.x	fa6,zero
  fmv.s.x f17,x0
    400000e4:	f00008d3          	fmv.w.x	fa7,zero
  fmv.s.x f18,x0
    400000e8:	f0000953          	fmv.w.x	fs2,zero
  fmv.s.x f19,x0
    400000ec:	f00009d3          	fmv.w.x	fs3,zero
  fmv.s.x f20,x0
    400000f0:	f0000a53          	fmv.w.x	fs4,zero
  fmv.s.x f21,x0
    400000f4:	f0000ad3          	fmv.w.x	fs5,zero
  fmv.s.x f22,x0
    400000f8:	f0000b53          	fmv.w.x	fs6,zero
  fmv.s.x f23,x0
    400000fc:	f0000bd3          	fmv.w.x	fs7,zero
  fmv.s.x f24,x0
    40000100:	f0000c53          	fmv.w.x	fs8,zero
  fmv.s.x f25,x0
    40000104:	f0000cd3          	fmv.w.x	fs9,zero
  fmv.s.x f26,x0
    40000108:	f0000d53          	fmv.w.x	fs10,zero
  fmv.s.x f27,x0
    4000010c:	f0000dd3          	fmv.w.x	fs11,zero
  fmv.s.x f28,x0
    40000110:	f0000e53          	fmv.w.x	ft8,zero
  fmv.s.x f29,x0
    40000114:	f0000ed3          	fmv.w.x	ft9,zero
  fmv.s.x f30,x0
    40000118:	f0000f53          	fmv.w.x	ft10,zero
  fmv.s.x f31,x0
    4000011c:	f0000fd3          	fmv.w.x	ft11,zero
1:
#endif

  # initialize trap vector
  la t0, trap_entry
    40000120:	00000297          	auipc	t0,0x0
    40000124:	03428293          	addi	t0,t0,52 # 40000154 <trap_entry>
  csrw mtvec, t0
    40000128:	30529073          	csrw	mtvec,t0
#zqh
#zqh  la  tp, _end + 63
#zqh  and tp, tp, -64

  # get core id
  csrr a0, mhartid
    4000012c:	f1402573          	csrr	a0,mhartid
  # for now, assume only 1 core
#zqh  li a1, 1
  li a1, 4 #zqh add
    40000130:	00400593          	li	a1,4
1:bgeu a0, a1, 1b
    40000134:	00b57063          	bleu	a1,a0,40000134 <_start+0x134>
#define BOOTLOADER_DATA_TLS_SIZE 512
#define BOOTLOADER_DATA_STACK_SIZE 1024
#tmp  li tp, SRAM_BASE + BOOTLOADER_CODE_SIZE + BOOTLOADER_DATA_GP_SIZE
#tmp  li sp, SRAM_BASE + BOOTLOADER_CODE_SIZE + BOOTLOADER_DATA_SIZE

  li sp, SRAM_BASE + SRAM_SIZE
    40000138:	40008137          	lui	sp,0x40008
  li tp, SRAM_BASE + SRAM_SIZE - BOOTLOADER_DATA_STACK_SIZE - BOOTLOADER_DATA_TLS_SIZE
    4000013c:	40008237          	lui	tp,0x40008
    40000140:	a002021b          	addiw	tp,tp,-1536
  li gp, SRAM_BASE + SRAM_SIZE - BOOTLOADER_DATA_STACK_SIZE - BOOTLOADER_DATA_TLS_SIZE - BOOTLOADER_DATA_GP_SIZE
    40000144:	400081b7          	lui	gp,0x40008
    40000148:	8001819b          	addiw	gp,gp,-2048


  jal boot_init
    4000014c:	6ec000ef          	jal	ra,40000838 <boot_init>
#  li s0, MAIN_MEM_BASE
#  jr s0 #jump to main memory space and never return back
  jr a0
    40000150:	00050067          	jr	a0

0000000040000154 <trap_entry>:

  .align 2
trap_entry:
  addi sp, sp, -272
    40000154:	ef010113          	addi	sp,sp,-272 # 40007ef0 <__global_pointer$+0x7580>

  SREG x1, 1*REGBYTES(sp)
    40000158:	00113423          	sd	ra,8(sp)
  SREG x2, 2*REGBYTES(sp)
    4000015c:	00213823          	sd	sp,16(sp)
  SREG x3, 3*REGBYTES(sp)
    40000160:	00313c23          	sd	gp,24(sp)
  SREG x4, 4*REGBYTES(sp)
    40000164:	02413023          	sd	tp,32(sp)
  SREG x5, 5*REGBYTES(sp)
    40000168:	02513423          	sd	t0,40(sp)
  SREG x6, 6*REGBYTES(sp)
    4000016c:	02613823          	sd	t1,48(sp)
  SREG x7, 7*REGBYTES(sp)
    40000170:	02713c23          	sd	t2,56(sp)
  SREG x8, 8*REGBYTES(sp)
    40000174:	04813023          	sd	s0,64(sp)
  SREG x9, 9*REGBYTES(sp)
    40000178:	04913423          	sd	s1,72(sp)
  SREG x10, 10*REGBYTES(sp)
    4000017c:	04a13823          	sd	a0,80(sp)
  SREG x11, 11*REGBYTES(sp)
    40000180:	04b13c23          	sd	a1,88(sp)
  SREG x12, 12*REGBYTES(sp)
    40000184:	06c13023          	sd	a2,96(sp)
  SREG x13, 13*REGBYTES(sp)
    40000188:	06d13423          	sd	a3,104(sp)
  SREG x14, 14*REGBYTES(sp)
    4000018c:	06e13823          	sd	a4,112(sp)
  SREG x15, 15*REGBYTES(sp)
    40000190:	06f13c23          	sd	a5,120(sp)
  SREG x16, 16*REGBYTES(sp)
    40000194:	09013023          	sd	a6,128(sp)
  SREG x17, 17*REGBYTES(sp)
    40000198:	09113423          	sd	a7,136(sp)
  SREG x18, 18*REGBYTES(sp)
    4000019c:	09213823          	sd	s2,144(sp)
  SREG x19, 19*REGBYTES(sp)
    400001a0:	09313c23          	sd	s3,152(sp)
  SREG x20, 20*REGBYTES(sp)
    400001a4:	0b413023          	sd	s4,160(sp)
  SREG x21, 21*REGBYTES(sp)
    400001a8:	0b513423          	sd	s5,168(sp)
  SREG x22, 22*REGBYTES(sp)
    400001ac:	0b613823          	sd	s6,176(sp)
  SREG x23, 23*REGBYTES(sp)
    400001b0:	0b713c23          	sd	s7,184(sp)
  SREG x24, 24*REGBYTES(sp)
    400001b4:	0d813023          	sd	s8,192(sp)
  SREG x25, 25*REGBYTES(sp)
    400001b8:	0d913423          	sd	s9,200(sp)
  SREG x26, 26*REGBYTES(sp)
    400001bc:	0da13823          	sd	s10,208(sp)
  SREG x27, 27*REGBYTES(sp)
    400001c0:	0db13c23          	sd	s11,216(sp)
  SREG x28, 28*REGBYTES(sp)
    400001c4:	0fc13023          	sd	t3,224(sp)
  SREG x29, 29*REGBYTES(sp)
    400001c8:	0fd13423          	sd	t4,232(sp)
  SREG x30, 30*REGBYTES(sp)
    400001cc:	0fe13823          	sd	t5,240(sp)
  SREG x31, 31*REGBYTES(sp)
    400001d0:	0ff13c23          	sd	t6,248(sp)

  csrr a0, mcause
    400001d4:	34202573          	csrr	a0,mcause
  csrr a1, mepc
    400001d8:	341025f3          	csrr	a1,mepc
  mv a2, sp
    400001dc:	00010613          	mv	a2,sp
  jal handle_trap
    400001e0:	098000ef          	jal	ra,40000278 <handle_trap>
  csrw mepc, a0
    400001e4:	34151073          	csrw	mepc,a0

  # Remain in M-mode after eret
  li t0, MSTATUS_MPP
    400001e8:	000022b7          	lui	t0,0x2
    400001ec:	8002829b          	addiw	t0,t0,-2048
  csrs mstatus, t0
    400001f0:	3002a073          	csrs	mstatus,t0

  LREG x1, 1*REGBYTES(sp)
    400001f4:	00813083          	ld	ra,8(sp)
  LREG x2, 2*REGBYTES(sp)
    400001f8:	01013103          	ld	sp,16(sp)
  LREG x3, 3*REGBYTES(sp)
    400001fc:	01813183          	ld	gp,24(sp)
  LREG x4, 4*REGBYTES(sp)
    40000200:	02013203          	ld	tp,32(sp)
  LREG x5, 5*REGBYTES(sp)
    40000204:	02813283          	ld	t0,40(sp)
  LREG x6, 6*REGBYTES(sp)
    40000208:	03013303          	ld	t1,48(sp)
  LREG x7, 7*REGBYTES(sp)
    4000020c:	03813383          	ld	t2,56(sp)
  LREG x8, 8*REGBYTES(sp)
    40000210:	04013403          	ld	s0,64(sp)
  LREG x9, 9*REGBYTES(sp)
    40000214:	04813483          	ld	s1,72(sp)
  LREG x10, 10*REGBYTES(sp)
    40000218:	05013503          	ld	a0,80(sp)
  LREG x11, 11*REGBYTES(sp)
    4000021c:	05813583          	ld	a1,88(sp)
  LREG x12, 12*REGBYTES(sp)
    40000220:	06013603          	ld	a2,96(sp)
  LREG x13, 13*REGBYTES(sp)
    40000224:	06813683          	ld	a3,104(sp)
  LREG x14, 14*REGBYTES(sp)
    40000228:	07013703          	ld	a4,112(sp)
  LREG x15, 15*REGBYTES(sp)
    4000022c:	07813783          	ld	a5,120(sp)
  LREG x16, 16*REGBYTES(sp)
    40000230:	08013803          	ld	a6,128(sp)
  LREG x17, 17*REGBYTES(sp)
    40000234:	08813883          	ld	a7,136(sp)
  LREG x18, 18*REGBYTES(sp)
    40000238:	09013903          	ld	s2,144(sp)
  LREG x19, 19*REGBYTES(sp)
    4000023c:	09813983          	ld	s3,152(sp)
  LREG x20, 20*REGBYTES(sp)
    40000240:	0a013a03          	ld	s4,160(sp)
  LREG x21, 21*REGBYTES(sp)
    40000244:	0a813a83          	ld	s5,168(sp)
  LREG x22, 22*REGBYTES(sp)
    40000248:	0b013b03          	ld	s6,176(sp)
  LREG x23, 23*REGBYTES(sp)
    4000024c:	0b813b83          	ld	s7,184(sp)
  LREG x24, 24*REGBYTES(sp)
    40000250:	0c013c03          	ld	s8,192(sp)
  LREG x25, 25*REGBYTES(sp)
    40000254:	0c813c83          	ld	s9,200(sp)
  LREG x26, 26*REGBYTES(sp)
    40000258:	0d013d03          	ld	s10,208(sp)
  LREG x27, 27*REGBYTES(sp)
    4000025c:	0d813d83          	ld	s11,216(sp)
  LREG x28, 28*REGBYTES(sp)
    40000260:	0e013e03          	ld	t3,224(sp)
  LREG x29, 29*REGBYTES(sp)
    40000264:	0e813e83          	ld	t4,232(sp)
  LREG x30, 30*REGBYTES(sp)
    40000268:	0f013f03          	ld	t5,240(sp)
  LREG x31, 31*REGBYTES(sp)
    4000026c:	0f813f83          	ld	t6,248(sp)

  addi sp, sp, 272
    40000270:	11010113          	addi	sp,sp,272
  mret
    40000274:	30200073          	mret

Disassembly of section .text:

0000000040000278 <handle_trap>:

#define IMP_MODE_SIM 1

uintptr_t __attribute__((weak)) handle_trap(uintptr_t cause, uintptr_t epc, uintptr_t regs[32])
{
}
    40000278:	00008067          	ret

000000004000027c <delay_sw>:


void delay_sw(int a) {
    for (int i = 0; i < a; i ++) {
    4000027c:	00a05a63          	blez	a0,40000290 <delay_sw+0x14>
    40000280:	00000793          	li	a5,0
        asm volatile ("nop");
    40000284:	00000013          	nop
    for (int i = 0; i < a; i ++) {
    40000288:	0017879b          	addiw	a5,a5,1
    4000028c:	fef51ce3          	bne	a0,a5,40000284 <delay_sw+0x8>
    }
}
    40000290:	00008067          	ret

0000000040000294 <delay_ms>:

//in 50MHz clock
//in ms: a = 1000 means 1 second
void delay_ms(uint32_t a) {
    for (uint32_t i = 0; i < a; i++) {
    40000294:	00000713          	li	a4,0
void delay_ms(uint32_t a) {
    40000298:	000026b7          	lui	a3,0x2
    4000029c:	49f68693          	addi	a3,a3,1183 # 249f <_tbss_end+0x243b>
    for (uint32_t i = 0; i < a; i++) {
    400002a0:	02050063          	beqz	a0,400002c0 <delay_ms+0x2c>
void delay_ms(uint32_t a) {
    400002a4:	00068793          	mv	a5,a3
        for (uint32_t j = 0; j < 9375; j++) {
            asm volatile ("nop");
    400002a8:	00000013          	nop
    400002ac:	fff7879b          	addiw	a5,a5,-1
        for (uint32_t j = 0; j < 9375; j++) {
    400002b0:	fe079ce3          	bnez	a5,400002a8 <delay_ms+0x14>
    for (uint32_t i = 0; i < a; i++) {
    400002b4:	0017071b          	addiw	a4,a4,1
    400002b8:	fee516e3          	bne	a0,a4,400002a4 <delay_ms+0x10>
        }
    }
}
    400002bc:	00008067          	ret
    400002c0:	00008067          	ret

00000000400002c4 <pll_init>:

int pll_init() {
    //*CRG_CTRL_CORE_PLL_CFG = 0x01010a02;//1GHz
    *CRG_CTRL_CORE_PLL_CFG = 0x01010104;//50MHz as FPGA's
    400002c4:	10000737          	lui	a4,0x10000
    400002c8:	010107b7          	lui	a5,0x1010
    400002cc:	1047879b          	addiw	a5,a5,260
    400002d0:	00f72223          	sw	a5,4(a4) # 10000004 <_tbss_end+0xfffffa0>
    while(1) {
        if ((*CRG_CTRL_CORE_PLL_CFG & 0x80000000) != 0) {
    400002d4:	00472783          	lw	a5,4(a4)
    400002d8:	fe07dee3          	bgez	a5,400002d4 <pll_init+0x10>
            *CRG_CTRL_CORE_PLL_CFG = *CRG_CTRL_CORE_PLL_CFG & 0xfeffffff;//disable bypass
    400002dc:	10000737          	lui	a4,0x10000
    400002e0:	00472683          	lw	a3,4(a4) # 10000004 <_tbss_end+0xfffffa0>
    400002e4:	ff0007b7          	lui	a5,0xff000
    400002e8:	fff78793          	addi	a5,a5,-1 # fffffffffeffffff <__global_pointer$+0xffffffffbefff68f>
    400002ec:	00d7f7b3          	and	a5,a5,a3
    400002f0:	00f72223          	sw	a5,4(a4)
            break;
        }
    }
    #ifdef HAS_ETH
    *CRG_CTRL_ETH_PLL_CFG = 0x03010508;
    400002f4:	030107b7          	lui	a5,0x3010
    400002f8:	5087879b          	addiw	a5,a5,1288
    400002fc:	00f72423          	sw	a5,8(a4)
    while(1) {
        if ((*CRG_CTRL_ETH_PLL_CFG & 0x80000000) != 0) {
    40000300:	00872783          	lw	a5,8(a4)
    40000304:	fe07dee3          	bgez	a5,40000300 <pll_init+0x3c>
            *CRG_CTRL_ETH_PLL_CFG = *CRG_CTRL_ETH_PLL_CFG & 0xfeffffff;//disable bypass
    40000308:	10000737          	lui	a4,0x10000
    4000030c:	00872683          	lw	a3,8(a4) # 10000008 <_tbss_end+0xfffffa4>
    40000310:	ff0007b7          	lui	a5,0xff000
    40000314:	fff78793          	addi	a5,a5,-1 # fffffffffeffffff <__global_pointer$+0xffffffffbefff68f>
    40000318:	00d7f7b3          	and	a5,a5,a3
    4000031c:	00f72423          	sw	a5,8(a4)
            *CRG_CTRL_ETH_PLL_CFG = *CRG_CTRL_ETH_PLL_CFG | 0x02000000;//set en
    40000320:	00872783          	lw	a5,8(a4)
    40000324:	020006b7          	lui	a3,0x2000
    40000328:	00d7e7b3          	or	a5,a5,a3
    4000032c:	00f72423          	sw	a5,8(a4)
            *CRG_CTRL_RESET_CFG = *CRG_CTRL_RESET_CFG | 0x09; //dereset ddr_phy and ddr_mc
            break;
        }
    }
    #endif
}
    40000330:	00008067          	ret

0000000040000334 <strlen>:

size_t strlen(const char *s)
{
  const char *p = s;
  while (*p)
    40000334:	00054783          	lbu	a5,0(a0)
    40000338:	00078e63          	beqz	a5,40000354 <strlen+0x20>
  const char *p = s;
    4000033c:	00050793          	mv	a5,a0
    p++;
    40000340:	00178793          	addi	a5,a5,1
  while (*p)
    40000344:	0007c703          	lbu	a4,0(a5)
    40000348:	fe071ce3          	bnez	a4,40000340 <strlen+0xc>
  return p - s;
}
    4000034c:	40a78533          	sub	a0,a5,a0
    40000350:	00008067          	ret
  const char *p = s;
    40000354:	00050793          	mv	a5,a0
    40000358:	ff5ff06f          	j	4000034c <strlen+0x18>

000000004000035c <uart0_tx_char>:

void uart0_tx_char(char ch) {
    while(((*UART0_TXDATA) & 0x80000000) != 0);
    4000035c:	10013737          	lui	a4,0x10013
    40000360:	00072783          	lw	a5,0(a4) # 10013000 <_tbss_end+0x10012f9c>
    40000364:	fe07cee3          	bltz	a5,40000360 <uart0_tx_char+0x4>
    *UART0_TXDATA = ch;
    40000368:	0005051b          	sext.w	a0,a0
    4000036c:	100137b7          	lui	a5,0x10013
    40000370:	00a7a023          	sw	a0,0(a5) # 10013000 <_tbss_end+0x10012f9c>
}
    40000374:	00008067          	ret

0000000040000378 <uart0_rx_char>:

char uart0_rx_char() {
    uint32_t rxdata;
    rxdata = *UART0_RXDATA;
    40000378:	100137b7          	lui	a5,0x10013
    4000037c:	0047a503          	lw	a0,4(a5) # 10013004 <_tbss_end+0x10012fa0>
    40000380:	0005051b          	sext.w	a0,a0
    while((rxdata & 0x80000000) != 0){
    40000384:	00055863          	bgez	a0,40000394 <uart0_rx_char+0x1c>
        rxdata = *UART0_RXDATA;
    40000388:	0047a503          	lw	a0,4(a5)
    4000038c:	0005051b          	sext.w	a0,a0
    while((rxdata & 0x80000000) != 0){
    40000390:	fe054ce3          	bltz	a0,40000388 <uart0_rx_char+0x10>
    }
    return rxdata;
}
    40000394:	0ff57513          	andi	a0,a0,255
    40000398:	00008067          	ret

000000004000039c <my_itoa_32>:

const char i2a_tab[16] = {'0','1','2','3','4','5','6','7','8','9','A','B','C','D','E','F'};
char* my_itoa_32(uint32_t a, char *buf) {
    4000039c:	00758693          	addi	a3,a1,7
    400003a0:	00000713          	li	a4,0
    uint32_t len;
    len = 8;
    for (int i = 0; i < len; i++) {
        buf[len - 1 - i] = i2a_tab[(a >> (i*4))%16];
    400003a4:	ee818813          	addi	a6,gp,-280 # 40007ee8 <__global_pointer$+0x7578>
    for (int i = 0; i < len; i++) {
    400003a8:	02000613          	li	a2,32
        buf[len - 1 - i] = i2a_tab[(a >> (i*4))%16];
    400003ac:	00e557bb          	srlw	a5,a0,a4
    400003b0:	00f7f793          	andi	a5,a5,15
    400003b4:	00f807b3          	add	a5,a6,a5
    400003b8:	0007c783          	lbu	a5,0(a5)
    400003bc:	00f68023          	sb	a5,0(a3) # 2000000 <_tbss_end+0x1ffff9c>
    400003c0:	0047071b          	addiw	a4,a4,4
    400003c4:	fff68693          	addi	a3,a3,-1
    for (int i = 0; i < len; i++) {
    400003c8:	fec712e3          	bne	a4,a2,400003ac <my_itoa_32+0x10>
    }
    buf[len] = 0;
    400003cc:	00058423          	sb	zero,8(a1)
    return buf;
}
    400003d0:	00058513          	mv	a0,a1
    400003d4:	00008067          	ret

00000000400003d8 <simple_print_str>:


void simple_print_str(char *str) {
    400003d8:	ff010113          	addi	sp,sp,-16
    400003dc:	00113423          	sd	ra,8(sp)
    400003e0:	00813023          	sd	s0,0(sp)
    400003e4:	00050413          	mv	s0,a0
    int len;

    len = strlen(str);
    400003e8:	f4dff0ef          	jal	ra,40000334 <strlen>
    for (int i = 0; i< len; i++) {
    400003ec:	0005079b          	sext.w	a5,a0
    400003f0:	02f05863          	blez	a5,40000420 <simple_print_str+0x48>
    400003f4:	00040793          	mv	a5,s0
    400003f8:	00140413          	addi	s0,s0,1
    400003fc:	fff5069b          	addiw	a3,a0,-1
    40000400:	02069693          	slli	a3,a3,0x20
    40000404:	0206d693          	srli	a3,a3,0x20
    40000408:	00d406b3          	add	a3,s0,a3
        //while(((*UART0_TXDATA) & 0x80000000) != 0);
        //*UART0_TXDATA = ch;
        uart0_tx_char(ch);
    //use print_monitor
    #else
        *PRINT_PTR_HART(0) = ch;
    4000040c:	1ff10637          	lui	a2,0x1ff10
        simple_print_char(str[i]);
    40000410:	0007c703          	lbu	a4,0(a5)
        *PRINT_PTR_HART(0) = ch;
    40000414:	f0e60023          	sb	a4,-256(a2) # 1ff0ff00 <_tbss_end+0x1ff0fe9c>
    40000418:	00178793          	addi	a5,a5,1
    for (int i = 0; i< len; i++) {
    4000041c:	fed79ae3          	bne	a5,a3,40000410 <simple_print_str+0x38>
}
    40000420:	00813083          	ld	ra,8(sp)
    40000424:	00013403          	ld	s0,0(sp)
    40000428:	01010113          	addi	sp,sp,16
    4000042c:	00008067          	ret

0000000040000430 <simple_uart0_get_str>:
char* simple_uart0_get_str(char *buf) {
    40000430:	fd010113          	addi	sp,sp,-48
    40000434:	02113423          	sd	ra,40(sp)
    40000438:	02813023          	sd	s0,32(sp)
    4000043c:	00913c23          	sd	s1,24(sp)
    40000440:	01213823          	sd	s2,16(sp)
    40000444:	01313423          	sd	s3,8(sp)
    40000448:	01413023          	sd	s4,0(sp)
    4000044c:	00050913          	mv	s2,a0
        tmp_str = uart0_rx_char();
    40000450:	f29ff0ef          	jal	ra,40000378 <uart0_rx_char>
    40000454:	00090493          	mv	s1,s2
    idx = 0;
    40000458:	00000413          	li	s0,0
        if (tmp_str == '\n') {
    4000045c:	00a00a13          	li	s4,10
        if (idx > 80) {
    40000460:	05100993          	li	s3,81
        if (tmp_str == '\n') {
    40000464:	01450c63          	beq	a0,s4,4000047c <simple_uart0_get_str+0x4c>
        buf[idx] = tmp_str;
    40000468:	00a48023          	sb	a0,0(s1)
        idx ++;
    4000046c:	0014041b          	addiw	s0,s0,1
        tmp_str = uart0_rx_char();
    40000470:	f09ff0ef          	jal	ra,40000378 <uart0_rx_char>
    40000474:	00148493          	addi	s1,s1,1
        if (idx > 80) {
    40000478:	ff3416e3          	bne	s0,s3,40000464 <simple_uart0_get_str+0x34>
        buf[idx] = tmp_str;
    4000047c:	02041793          	slli	a5,s0,0x20
    40000480:	0207d793          	srli	a5,a5,0x20
    40000484:	00f907b3          	add	a5,s2,a5
    40000488:	00a00713          	li	a4,10
    4000048c:	00e78023          	sb	a4,0(a5)
        idx ++;
    40000490:	0014041b          	addiw	s0,s0,1
    buf[idx] = 0;
    40000494:	02041413          	slli	s0,s0,0x20
    40000498:	02045413          	srli	s0,s0,0x20
    4000049c:	00890433          	add	s0,s2,s0
    400004a0:	00040023          	sb	zero,0(s0)
}
    400004a4:	00090513          	mv	a0,s2
    400004a8:	02813083          	ld	ra,40(sp)
    400004ac:	02013403          	ld	s0,32(sp)
    400004b0:	01813483          	ld	s1,24(sp)
    400004b4:	01013903          	ld	s2,16(sp)
    400004b8:	00813983          	ld	s3,8(sp)
    400004bc:	00013a03          	ld	s4,0(sp)
    400004c0:	03010113          	addi	sp,sp,48
    400004c4:	00008067          	ret

00000000400004c8 <uint_max>:
    return (a > b) ? a : b;
    400004c8:	00058793          	mv	a5,a1
    400004cc:	00a5f463          	bleu	a0,a1,400004d4 <uint_max+0xc>
    400004d0:	00050793          	mv	a5,a0
}
    400004d4:	0007851b          	sext.w	a0,a5
    400004d8:	00008067          	ret

00000000400004dc <ddr_init>:
int ddr_init() {
    400004dc:	fd010113          	addi	sp,sp,-48
    400004e0:	02113423          	sd	ra,40(sp)
    400004e4:	02813023          	sd	s0,32(sp)
    400004e8:	00913c23          	sd	s1,24(sp)
    400004ec:	01213823          	sd	s2,16(sp)
    400004f0:	01313423          	sd	s3,8(sp)
    400004f4:	01413023          	sd	s4,0(sp)
    *DDR_MC_CTRL_CFG_REG(0) = 0x600;//clean start, use DDR3
    400004f8:	10030437          	lui	s0,0x10030
    400004fc:	60000793          	li	a5,1536
    40000500:	00f42023          	sw	a5,0(s0) # 10030000 <_tbss_end+0x1002ff9c>
    *DDR_MC_PHY_AC_CFG_REG(0) = 0;
    40000504:	100347b7          	lui	a5,0x10034
    40000508:	0407a023          	sw	zero,64(a5) # 10034040 <_tbss_end+0x10033fdc>
    *DDR_MC_PHY_AC_CFG_REG(1) = 0; //TBD
    4000050c:	0407a223          	sw	zero,68(a5)
    *DDR_MC_PHY_AC_CFG_REG(2) = 0; //TBD
    40000510:	0407a423          	sw	zero,72(a5)
    *DDR_MC_PHY_AC_CFG_REG(3) = 0; //TBD
    40000514:	0407a623          	sw	zero,76(a5)
    *DDR_MC_PHY_AC_CFG_REG(4) = 0; //TBD
    40000518:	0407a823          	sw	zero,80(a5)
    *DDR_MC_PHY_AC_CFG_REG(5) = 0; //TBD
    4000051c:	0407aa23          	sw	zero,84(a5)
    *DDR_MC_PHY_AC_CFG_REG(6) = 0; //TBD
    40000520:	0407ac23          	sw	zero,88(a5)
    *DDR_MC_PHY_AC_CFG_REG(7) = 0; //TBD
    40000524:	0407ae23          	sw	zero,92(a5)
    *DDR_MC_PHY_AC_CFG_REG(8) = 0; //TBD
    40000528:	0607a023          	sw	zero,96(a5)
    *DDR_MC_PHY_AC_CFG_REG(9) = 0; //TBD
    4000052c:	0607a223          	sw	zero,100(a5)
    *DDR_MC_PHY_AC_CFG_REG(10) = 0; //TBD
    40000530:	0607a423          	sw	zero,104(a5)
    *DDR_MC_PHY_AC_CFG_REG(11) = 0; //TBD
    40000534:	0607a623          	sw	zero,108(a5)
        *DDR_MC_PHY_DS_CFG_REG(0+i*8) = 0x00000027;
    40000538:	02700713          	li	a4,39
    4000053c:	00e7a023          	sw	a4,0(a5)
        *DDR_MC_PHY_DS_CFG_REG(1+i*8) = 0x00000027;
    40000540:	00e7a223          	sw	a4,4(a5)
        *DDR_MC_PHY_DS_CFG_REG(2+i*8) = 0x00000000;
    40000544:	0007a423          	sw	zero,8(a5)
        *DDR_MC_PHY_DS_CFG_REG(3+i*8) = 0x000000ff;//dll_master_ctrl
    40000548:	0ff00613          	li	a2,255
    4000054c:	00c7a623          	sw	a2,12(a5)
        *DDR_MC_PHY_DS_CFG_REG(4+i*8) = (rd_dqs_dll_delay << 16) | (wr_dq_dll_delay << 8) | wr_dqs_dll_delay;//dll_slave_ctrl, @100MHz
    40000550:	004046b7          	lui	a3,0x404
    40000554:	00d7a823          	sw	a3,16(a5)
        *DDR_MC_PHY_DS_CFG_REG(5+i*8) = 0x00000000;
    40000558:	0007aa23          	sw	zero,20(a5)
        *DDR_MC_PHY_DS_CFG_REG(6+i*8) = 0x00000000;
    4000055c:	0007ac23          	sw	zero,24(a5)
        *DDR_MC_PHY_DS_CFG_REG(7+i*8) = 0x00000000;
    40000560:	0007ae23          	sw	zero,28(a5)
        *DDR_MC_PHY_DS_CFG_REG(0+i*8) = 0x00000027;
    40000564:	02e7a023          	sw	a4,32(a5)
        *DDR_MC_PHY_DS_CFG_REG(1+i*8) = 0x00000027;
    40000568:	02e7a223          	sw	a4,36(a5)
        *DDR_MC_PHY_DS_CFG_REG(2+i*8) = 0x00000000;
    4000056c:	0207a423          	sw	zero,40(a5)
        *DDR_MC_PHY_DS_CFG_REG(3+i*8) = 0x000000ff;//dll_master_ctrl
    40000570:	02c7a623          	sw	a2,44(a5)
        *DDR_MC_PHY_DS_CFG_REG(4+i*8) = (rd_dqs_dll_delay << 16) | (wr_dq_dll_delay << 8) | wr_dqs_dll_delay;//dll_slave_ctrl, @100MHz
    40000574:	02d7a823          	sw	a3,48(a5)
        *DDR_MC_PHY_DS_CFG_REG(5+i*8) = 0x00000000;
    40000578:	0207aa23          	sw	zero,52(a5)
        *DDR_MC_PHY_DS_CFG_REG(6+i*8) = 0x00000000;
    4000057c:	0207ac23          	sw	zero,56(a5)
        *DDR_MC_PHY_DS_CFG_REG(7+i*8) = 0x00000000;
    40000580:	0207ae23          	sw	zero,60(a5)
   simple_print_str("ddr_init step 0\n");
    40000584:	00000517          	auipc	a0,0x0
    40000588:	30c50513          	addi	a0,a0,780 # 40000890 <mr0_cas_table+0x10>
    4000058c:	e4dff0ef          	jal	ra,400003d8 <simple_print_str>
    *DDR_MC_CTRL_CFG_REG(18) = (trp << 16) | (bstlen << 8) | (twr + trp);//trp_ab = trp = 11, bstlen = 3(burst 8), tdal = twr + trp
    40000590:	000607b7          	lui	a5,0x60
    40000594:	30c7879b          	addiw	a5,a5,780
    40000598:	04f42423          	sw	a5,72(s0)
    *DDR_MC_CTRL_CFG_REG(51) = 0xffffffff;//interrupt disable
    4000059c:	fff00793          	li	a5,-1
    400005a0:	0cf42623          	sw	a5,204(s0)
    *DDR_MC_CTRL_CFG_REG(136) = 0xffffffff;//set int_ack to clean int_status
    400005a4:	22f42023          	sw	a5,544(s0)
    *DDR_MC_CTRL_CFG_REG(20) = (tref << 16) | (trfc_min + 1);//tref = 6250, trfc = > min and < max
    400005a8:	030d07b7          	lui	a5,0x30d0
    400005ac:	0697879b          	addiw	a5,a5,105
    400005b0:	04f42823          	sw	a5,80(s0)
    *DDR_MC_CTRL_CFG_REG(19) = 1 << 24;//tref_enable
    400005b4:	010007b7          	lui	a5,0x1000
    400005b8:	04f42623          	sw	a5,76(s0)
    *DDR_MC_CTRL_CFG_REG(11) = (cl << 25) | (0 << 24) | tdll;//cas latency = 11, tdll = 512. cas_lat[0] is harf cycle increase flag, cas_lat[31:25] is latency
    400005bc:	0c0007b7          	lui	a5,0xc000
    400005c0:	2007879b          	addiw	a5,a5,512
    400005c4:	02f42623          	sw	a5,44(s0)
    *DDR_MC_CTRL_CFG_REG(12) = (tccd << 24) | (0 << 16) | (al << 8) | wl;//tccd = 4, tbst_int_interval = 0, additive latency = 9, wrlat = 17
    400005c8:	040007b7          	lui	a5,0x4000
    400005cc:	4097879b          	addiw	a5,a5,1033
    400005d0:	02f42823          	sw	a5,48(s0)
    *DDR_MC_CTRL_CFG_REG(26) = mr0 << 8;//mr0
    400005d4:	000537b7          	lui	a5,0x53
    400005d8:	8007879b          	addiw	a5,a5,-2048
    400005dc:	06f42423          	sw	a5,104(s0)
    *DDR_MC_CTRL_CFG_REG(27) = (mr2 << 16) | mr1;//mr2, mr1
    400005e0:	020007b7          	lui	a5,0x2000
    400005e4:	0167879b          	addiw	a5,a5,22
    400005e8:	06f42623          	sw	a5,108(s0)
    *DDR_MC_CTRL_CFG_REG(28) = mr3 << 16;//mr3
    400005ec:	06042823          	sw	zero,112(s0)
    *DDR_MC_CTRL_CFG_REG(17) = (0 << 8) | twr;//ap, twr
    400005f0:	00600793          	li	a5,6
    400005f4:	04f42223          	sw	a5,68(s0)
    *DDR_MC_CTRL_CFG_REG(8) = trst_n;//trst_n, simulation need less
    400005f8:	0c800793          	li	a5,200
    400005fc:	02f42023          	sw	a5,32(s0)
    *DDR_MC_CTRL_CFG_REG(9) = tcke_inactive;//tcke_inactive, simulation need less
    40000600:	1f400793          	li	a5,500
    40000604:	02f42223          	sw	a5,36(s0)
    *DDR_MC_CTRL_CFG_REG(23) = txsnr;//txsnr
    40000608:	12c00793          	li	a5,300
    4000060c:	04f42e23          	sw	a5,92(s0)
    *DDR_MC_CTRL_CFG_REG(37) = (tzqinit << 8) | 0;//tzqinit = zqcl * 2
    40000610:	000207b7          	lui	a5,0x20
    40000614:	08f42a23          	sw	a5,148(s0)
    *DDR_MC_CTRL_CFG_REG(38) = (tzqcs << 16) | tzqcl;//tzqcs, tzqcl
    40000618:	004007b7          	lui	a5,0x400
    4000061c:	1007879b          	addiw	a5,a5,256
    40000620:	08f42c23          	sw	a5,152(s0)
    *DDR_MC_CTRL_CFG_REG(14) = (tmrd << 24) | (trtp << 16) | (tfaw << 8) | trp;//tmrd, trtp, tfaw = 24, trp
    40000624:	040417b7          	lui	a5,0x4041
    40000628:	4067879b          	addiw	a5,a5,1030
    4000062c:	02f42c23          	sw	a5,56(s0)
    *DDR_MC_CTRL_CFG_REG(16) = trcd << 24;//trcd
    40000630:	060007b7          	lui	a5,0x6000
    40000634:	04f42023          	sw	a5,64(s0)
    *DDR_MC_CTRL_CFG_REG(13) = (twtr << 24) | (tras << 16) | (trc << 8) | trrd;//twtr, tras_min = 28, trc, trrd
    40000638:	030f17b7          	lui	a5,0x30f1
    4000063c:	5047879b          	addiw	a5,a5,1284
    40000640:	02f42a23          	sw	a5,52(s0)
    *DDR_MC_CTRL_CFG_REG(15) = (tras_max << 8) | tmod;//tras_max=0x1ffff, tmod
    40000644:	000017b7          	lui	a5,0x1
    40000648:	90c7879b          	addiw	a5,a5,-1780
    4000064c:	02f42e23          	sw	a5,60(s0)
    *DDR_MC_CTRL_CFG_REG(112) = (tdfi_ctrl_delay << 16) | (twrlat_adj << 8) | rdlat_adj;//tdfi_ctrl_delay = 2, twrlat_adj = 17, rdlat_adj = 20
    40000650:	000217b7          	lui	a5,0x21
    40000654:	90a7879b          	addiw	a5,a5,-1782
    40000658:	1cf42023          	sw	a5,448(s0)
    *DDR_MC_CTRL_CFG_REG(128) = tphy_wrdata;//tphy_wrdata= 1
    4000065c:	00100793          	li	a5,1
    40000660:	20f42023          	sw	a5,512(s0)
    *DDR_MC_CTRL_CFG_REG(68) = (odt_en << 24) | (todth_rd << 16) | (todth_wr << 8) | todtl_2cmd;//odt_en = 1, todth_rd = 4, todth_wr = 6, todtl_2cmd = 0
    40000664:	010407b7          	lui	a5,0x1040
    40000668:	6007879b          	addiw	a5,a5,1536
    4000066c:	10f42823          	sw	a5,272(s0)
    *DDR_MC_CTRL_CFG_REG(105) = (dll_rst_adj_dly << 16) | dll_rst_delay;//dll_rst_adj_dly=10, dll_rst_delay=10
    40000670:	000a07b7          	lui	a5,0xa0
    40000674:	00a7879b          	addiw	a5,a5,10
    40000678:	1af42223          	sw	a5,420(s0)
    *DDR_MC_CTRL_CFG_REG(0) = *DDR_MC_CTRL_CFG_REG(0) | 0x1;//set start
    4000067c:	00042783          	lw	a5,0(s0)
    40000680:	0017e793          	ori	a5,a5,1
    40000684:	00f42023          	sw	a5,0(s0)
    simple_print_str("ddr_init step 1\n");
    40000688:	00000517          	auipc	a0,0x0
    4000068c:	22050513          	addi	a0,a0,544 # 400008a8 <mr0_cas_table+0x28>
    40000690:	d49ff0ef          	jal	ra,400003d8 <simple_print_str>
        ddr_mc_reg = *DDR_MC_CTRL_CFG_REG(104);
    40000694:	1a042483          	lw	s1,416(s0)
        if (((*DDR_MC_CTRL_CFG_REG(104)) & 0x0100) != 0) {
    40000698:	1a042783          	lw	a5,416(s0)
    4000069c:	0007879b          	sext.w	a5,a5
    400006a0:	1007f793          	andi	a5,a5,256
    400006a4:	04079c63          	bnez	a5,400006fc <ddr_init+0x220>
    400006a8:	0004849b          	sext.w	s1,s1
            simple_print_str("ddr_mc cke_status is:\n");
    400006ac:	00000a17          	auipc	s4,0x0
    400006b0:	244a0a13          	addi	s4,s4,580 # 400008f0 <mr0_cas_table+0x70>
            simple_print_str("\n");
    400006b4:	00000997          	auipc	s3,0x0
    400006b8:	25498993          	addi	s3,s3,596 # 40000908 <mr0_cas_table+0x88>
            delay_sw(300);//wait txpr ddr cycle
    400006bc:	12c00513          	li	a0,300
    400006c0:	bbdff0ef          	jal	ra,4000027c <delay_sw>
            simple_print_str("ddr_mc cke_status is:\n");
    400006c4:	000a0513          	mv	a0,s4
    400006c8:	d11ff0ef          	jal	ra,400003d8 <simple_print_str>
            simple_print_str(my_itoa_32(ddr_mc_reg, str_buf));
    400006cc:	00020593          	mv	a1,tp
    400006d0:	00048513          	mv	a0,s1
    400006d4:	cc9ff0ef          	jal	ra,4000039c <my_itoa_32>
    400006d8:	d01ff0ef          	jal	ra,400003d8 <simple_print_str>
            simple_print_str("\n");
    400006dc:	00098513          	mv	a0,s3
    400006e0:	cf9ff0ef          	jal	ra,400003d8 <simple_print_str>
        ddr_mc_reg = *DDR_MC_CTRL_CFG_REG(104);
    400006e4:	1a042483          	lw	s1,416(s0)
    400006e8:	0004849b          	sext.w	s1,s1
        if (((*DDR_MC_CTRL_CFG_REG(104)) & 0x0100) != 0) {
    400006ec:	1a042783          	lw	a5,416(s0)
    400006f0:	0007879b          	sext.w	a5,a5
    400006f4:	1007f793          	andi	a5,a5,256
    400006f8:	fc0782e3          	beqz	a5,400006bc <ddr_init+0x1e0>
            delay_sw(300);//wait txpr ddr cycle
    400006fc:	12c00513          	li	a0,300
    40000700:	b7dff0ef          	jal	ra,4000027c <delay_sw>
            simple_print_str("ddr_mc cke_status done\n");
    40000704:	00000517          	auipc	a0,0x0
    40000708:	1bc50513          	addi	a0,a0,444 # 400008c0 <mr0_cas_table+0x40>
    4000070c:	ccdff0ef          	jal	ra,400003d8 <simple_print_str>
    *DDR_MC_CTRL_CFG_REG(25) = 0x03020000;//all chip select, write mr0/1/2/3
    40000710:	100307b7          	lui	a5,0x10030
    40000714:	03020737          	lui	a4,0x3020
    40000718:	06e7a223          	sw	a4,100(a5) # 10030064 <_tbss_end+0x10030000>
   simple_print_str("ddr_init step 2\n");
    4000071c:	00000517          	auipc	a0,0x0
    40000720:	1bc50513          	addi	a0,a0,444 # 400008d8 <mr0_cas_table+0x58>
    40000724:	cb5ff0ef          	jal	ra,400003d8 <simple_print_str>
        if (((*DDR_MC_CTRL_CFG_REG(49)) & 0x00020000) != 0) {
    40000728:	100306b7          	lui	a3,0x10030
    4000072c:	00020737          	lui	a4,0x20
    40000730:	0c46a783          	lw	a5,196(a3) # 100300c4 <_tbss_end+0x10030060>
    40000734:	00e7f7b3          	and	a5,a5,a4
    40000738:	fe078ce3          	beqz	a5,40000730 <ddr_init+0x254>
            simple_print_str("ddr_mc mrs done\n");
    4000073c:	00000517          	auipc	a0,0x0
    40000740:	1d450513          	addi	a0,a0,468 # 40000910 <mr0_cas_table+0x90>
    40000744:	c95ff0ef          	jal	ra,400003d8 <simple_print_str>
   simple_print_str("ddr_init step 3\n");
    40000748:	00000517          	auipc	a0,0x0
    4000074c:	1e050513          	addi	a0,a0,480 # 40000928 <mr0_cas_table+0xa8>
    40000750:	c89ff0ef          	jal	ra,400003d8 <simple_print_str>
        if ((*DDR_MC_CTRL_CFG_REG(49) & 0x10) != 0) {
    40000754:	10030737          	lui	a4,0x10030
    40000758:	0c472783          	lw	a5,196(a4) # 100300c4 <_tbss_end+0x10030060>
    4000075c:	0007879b          	sext.w	a5,a5
    40000760:	0107f793          	andi	a5,a5,16
    40000764:	fe078ae3          	beqz	a5,40000758 <ddr_init+0x27c>
            simple_print_str("ddr_mc init completed\n");
    40000768:	00000517          	auipc	a0,0x0
    4000076c:	1d850513          	addi	a0,a0,472 # 40000940 <mr0_cas_table+0xc0>
    40000770:	c69ff0ef          	jal	ra,400003d8 <simple_print_str>
    *DDR_MC_AP_CFG_REG(0) = 0xc0000000;//
    40000774:	100387b7          	lui	a5,0x10038
    40000778:	c0000737          	lui	a4,0xc0000
    4000077c:	00e7a023          	sw	a4,0(a5) # 10038000 <_tbss_end+0x10037f9c>
    *DDR_MC_AP_CFG_REG(1) = 0x80000000;//enable
    40000780:	80000737          	lui	a4,0x80000
    40000784:	00e7a223          	sw	a4,4(a5)
}
    40000788:	02813083          	ld	ra,40(sp)
    4000078c:	02013403          	ld	s0,32(sp)
    40000790:	01813483          	ld	s1,24(sp)
    40000794:	01013903          	ld	s2,16(sp)
    40000798:	00813983          	ld	s3,8(sp)
    4000079c:	00013a03          	ld	s4,0(sp)
    400007a0:	03010113          	addi	sp,sp,48
    400007a4:	00008067          	ret

00000000400007a8 <simple_print_char>:
        *PRINT_PTR_HART(0) = ch;
    400007a8:	1ff107b7          	lui	a5,0x1ff10
    400007ac:	f0a78023          	sb	a0,-256(a5) # 1ff0ff00 <_tbss_end+0x1ff0fe9c>
    #endif

}
    400007b0:	00008067          	ret

00000000400007b4 <uart0_init>:

void uart0_init() {
    //gpio hw iof enable
    *GPIO_IOF_EN(0) = *GPIO_IOF_EN(0) | 0x3;
    400007b4:	10012737          	lui	a4,0x10012
    400007b8:	03872783          	lw	a5,56(a4) # 10012038 <_tbss_end+0x10011fd4>
    400007bc:	0037e793          	ori	a5,a5,3
    400007c0:	02f72c23          	sw	a5,56(a4)

    //printf maybe use uart, need config it first
    *UART0_TXCTRL = 1;//enable tx, nstop = 0(1 stop bit)
    400007c4:	100137b7          	lui	a5,0x10013
    400007c8:	00100713          	li	a4,1
    400007cc:	00e7a423          	sw	a4,8(a5) # 10013008 <_tbss_end+0x10012fa4>
    //*UART0_TXCTRL = 3;//enable tx, nstop = 1(2 stop bit)
    //*UART0_TXCTRL = 0x5; //parity odd check
    //*UART0_TXCTRL = 0x9; //parity even check
    //*UART0_TXCTRL = 0xd; //parity bit force to 0
    //*UART0_TXDATA = 0;
    *UART0_RXCTRL = 1;//enable rx
    400007d0:	00e7a623          	sw	a4,12(a5)
    //*UART0_RXCTRL = 0;//disable rx
    //*UART0_RXCTRL = 0x5; //parity odd check
    *UART0_RXDATA = 0;
    400007d4:	0007a223          	sw	zero,4(a5)
    *UART0_IE     = 0;
    400007d8:	0007a823          	sw	zero,16(a5)
    //*UART0_DIV    = 2; //speedup simulation, use fastest speed
    *UART0_DIV    = 53; //57600 baud ratio @ 50MHz clock(FPGA)
    400007dc:	03500713          	li	a4,53
    400007e0:	00e7ac23          	sw	a4,24(a5)
    //printf_zqh("UART0_RXCTRL %x\n", *UART0_RXCTRL);
    //printf_zqh("UART0_RXCTRL %x\n", *UART0_RXDATA);
    //printf_zqh("UART0_IE     %x\n", *UART0_IE    );
    //printf_zqh("UART0_DIV    %x\n", *UART0_DIV   );
 
}
    400007e4:	00008067          	ret

00000000400007e8 <hw_init>:

void hw_init() {
    if (read_csr(mhartid) == 0) {
    400007e8:	f14027f3          	csrr	a5,mhartid
    400007ec:	00078463          	beqz	a5,400007f4 <hw_init+0xc>
    400007f0:	0000006f          	j	400007f0 <hw_init+0x8>
void hw_init() {
    400007f4:	ff010113          	addi	sp,sp,-16
    400007f8:	00113423          	sd	ra,8(sp)
        pll_init();
    400007fc:	ac9ff0ef          	jal	ra,400002c4 <pll_init>
        uart0_init();
    40000800:	fb5ff0ef          	jal	ra,400007b4 <uart0_init>
        #endif
    }
    else {
        while(1);
    }
}
    40000804:	00813083          	ld	ra,8(sp)
    40000808:	01010113          	addi	sp,sp,16
    4000080c:	00008067          	ret

0000000040000810 <load_img>:

uint32_t load_img() {
    40000810:	ff010113          	addi	sp,sp,-16
    40000814:	00113423          	sd	ra,8(sp)
    simple_print_str("bootloader start!\n");
    40000818:	00000517          	auipc	a0,0x0
    4000081c:	14050513          	addi	a0,a0,320 # 40000958 <mr0_cas_table+0xd8>
    40000820:	bb9ff0ef          	jal	ra,400003d8 <simple_print_str>

    //simulation use this
    #ifdef IMP_MODE_SIM
    __asm__ __volatile__ ("fence.i");
    40000824:	0000100f          	fence.i
//tmp    while(1) {
//tmp        simple_uart0_get_str(str_buf);
//tmp        //replay the get string
//tmp        //simple_print_str(str_buf);
//tmp    }
}
    40000828:	40002537          	lui	a0,0x40002
    4000082c:	00813083          	ld	ra,8(sp)
    40000830:	01010113          	addi	sp,sp,16
    40000834:	00008067          	ret

0000000040000838 <boot_init>:

uint32_t boot_init()
{
    40000838:	ff010113          	addi	sp,sp,-16
    4000083c:	00113423          	sd	ra,8(sp)
    uint32_t ret_v;
    //init_tls();
    hw_init();
    40000840:	fa9ff0ef          	jal	ra,400007e8 <hw_init>
    ret_v = load_img();
    40000844:	fcdff0ef          	jal	ra,40000810 <load_img>
    return ret_v;
}
    40000848:	0005051b          	sext.w	a0,a0
    4000084c:	00813083          	ld	ra,8(sp)
    40000850:	01010113          	addi	sp,sp,16
    40000854:	00008067          	ret
