
bootloader.elf:     file format elf64-littleriscv


Disassembly of section .text.init:

0000000040000000 <_start>:

  .section ".text.init"
  .option norvc
  .globl _start
_start:
  li  x1, 0
    40000000:	00000093          	li	ra,0
  li  x2, 0
    40000004:	00000113          	li	sp,0
  li  x3, 0
    40000008:	00000193          	li	gp,0
  li  x4, 0
    4000000c:	00000213          	li	tp,0
  li  x5, 0
    40000010:	00000293          	li	t0,0
  li  x6, 0
    40000014:	00000313          	li	t1,0
  li  x7, 0
    40000018:	00000393          	li	t2,0
  li  x8, 0
    4000001c:	00000413          	li	s0,0
  li  x9, 0
    40000020:	00000493          	li	s1,0
  li  x10,0
    40000024:	00000513          	li	a0,0
  li  x11,0
    40000028:	00000593          	li	a1,0
  li  x12,0
    4000002c:	00000613          	li	a2,0
  li  x13,0
    40000030:	00000693          	li	a3,0
  li  x14,0
    40000034:	00000713          	li	a4,0
  li  x15,0
    40000038:	00000793          	li	a5,0
  li  x16,0
    4000003c:	00000813          	li	a6,0
  li  x17,0
    40000040:	00000893          	li	a7,0
  li  x18,0
    40000044:	00000913          	li	s2,0
  li  x19,0
    40000048:	00000993          	li	s3,0
  li  x20,0
    4000004c:	00000a13          	li	s4,0
  li  x21,0
    40000050:	00000a93          	li	s5,0
  li  x22,0
    40000054:	00000b13          	li	s6,0
  li  x23,0
    40000058:	00000b93          	li	s7,0
  li  x24,0
    4000005c:	00000c13          	li	s8,0
  li  x25,0
    40000060:	00000c93          	li	s9,0
  li  x26,0
    40000064:	00000d13          	li	s10,0
  li  x27,0
    40000068:	00000d93          	li	s11,0
  li  x28,0
    4000006c:	00000e13          	li	t3,0
  li  x29,0
    40000070:	00000e93          	li	t4,0
  li  x30,0
    40000074:	00000f13          	li	t5,0
  li  x31,0
    40000078:	00000f93          	li	t6,0


  # enable FPU and accelerator if present
  li t0, MSTATUS_FS | MSTATUS_XS
    4000007c:	0001e2b7          	lui	t0,0x1e
  csrs mstatus, t0
    40000080:	3002a073          	csrs	mstatus,t0

  # make sure XLEN agrees with compilation choice
  li t0, 1
    40000084:	00100293          	li	t0,1
  slli t0, t0, 31
    40000088:	01f29293          	slli	t0,t0,0x1f
#if __riscv_xlen == 64
  bgez t0, 1f
    4000008c:	0002d263          	bgez	t0,40000090 <_start+0x90>
#tmp   j 2b
1:

#ifdef __riscv_flen
  # initialize FPU if we have one
  la t0, 1f
    40000090:	00000297          	auipc	t0,0x0
    40000094:	09028293          	addi	t0,t0,144 # 40000120 <_start+0x120>
  csrw mtvec, t0
    40000098:	30529073          	csrw	mtvec,t0

  fssr    x0
    4000009c:	00301073          	fscsr	zero
  fmv.s.x f0, x0
    400000a0:	f0000053          	fmv.w.x	ft0,zero
  fmv.s.x f1, x0
    400000a4:	f00000d3          	fmv.w.x	ft1,zero
  fmv.s.x f2, x0
    400000a8:	f0000153          	fmv.w.x	ft2,zero
  fmv.s.x f3, x0
    400000ac:	f00001d3          	fmv.w.x	ft3,zero
  fmv.s.x f4, x0
    400000b0:	f0000253          	fmv.w.x	ft4,zero
  fmv.s.x f5, x0
    400000b4:	f00002d3          	fmv.w.x	ft5,zero
  fmv.s.x f6, x0
    400000b8:	f0000353          	fmv.w.x	ft6,zero
  fmv.s.x f7, x0
    400000bc:	f00003d3          	fmv.w.x	ft7,zero
  fmv.s.x f8, x0
    400000c0:	f0000453          	fmv.w.x	fs0,zero
  fmv.s.x f9, x0
    400000c4:	f00004d3          	fmv.w.x	fs1,zero
  fmv.s.x f10,x0
    400000c8:	f0000553          	fmv.w.x	fa0,zero
  fmv.s.x f11,x0
    400000cc:	f00005d3          	fmv.w.x	fa1,zero
  fmv.s.x f12,x0
    400000d0:	f0000653          	fmv.w.x	fa2,zero
  fmv.s.x f13,x0
    400000d4:	f00006d3          	fmv.w.x	fa3,zero
  fmv.s.x f14,x0
    400000d8:	f0000753          	fmv.w.x	fa4,zero
  fmv.s.x f15,x0
    400000dc:	f00007d3          	fmv.w.x	fa5,zero
  fmv.s.x f16,x0
    400000e0:	f0000853          	fmv.w.x	fa6,zero
  fmv.s.x f17,x0
    400000e4:	f00008d3          	fmv.w.x	fa7,zero
  fmv.s.x f18,x0
    400000e8:	f0000953          	fmv.w.x	fs2,zero
  fmv.s.x f19,x0
    400000ec:	f00009d3          	fmv.w.x	fs3,zero
  fmv.s.x f20,x0
    400000f0:	f0000a53          	fmv.w.x	fs4,zero
  fmv.s.x f21,x0
    400000f4:	f0000ad3          	fmv.w.x	fs5,zero
  fmv.s.x f22,x0
    400000f8:	f0000b53          	fmv.w.x	fs6,zero
  fmv.s.x f23,x0
    400000fc:	f0000bd3          	fmv.w.x	fs7,zero
  fmv.s.x f24,x0
    40000100:	f0000c53          	fmv.w.x	fs8,zero
  fmv.s.x f25,x0
    40000104:	f0000cd3          	fmv.w.x	fs9,zero
  fmv.s.x f26,x0
    40000108:	f0000d53          	fmv.w.x	fs10,zero
  fmv.s.x f27,x0
    4000010c:	f0000dd3          	fmv.w.x	fs11,zero
  fmv.s.x f28,x0
    40000110:	f0000e53          	fmv.w.x	ft8,zero
  fmv.s.x f29,x0
    40000114:	f0000ed3          	fmv.w.x	ft9,zero
  fmv.s.x f30,x0
    40000118:	f0000f53          	fmv.w.x	ft10,zero
  fmv.s.x f31,x0
    4000011c:	f0000fd3          	fmv.w.x	ft11,zero
1:
#endif

  # initialize trap vector
  la t0, trap_entry
    40000120:	00000297          	auipc	t0,0x0
    40000124:	03828293          	addi	t0,t0,56 # 40000158 <trap_entry>
  csrw mtvec, t0
    40000128:	30529073          	csrw	mtvec,t0
#zqh
#zqh  la  tp, _end + 63
#zqh  and tp, tp, -64

  # get core id
  csrr a0, mhartid
    4000012c:	f1402573          	csrr	a0,mhartid
  # for now, assume only 1 core
#zqh  li a1, 1
  li a1, 4 #zqh add
    40000130:	00400593          	li	a1,4
1:bgeu a0, a1, 1b
    40000134:	00b57063          	bgeu	a0,a1,40000134 <_start+0x134>
#define BOOTLOADER_DATA_TLS_SIZE 512
#define BOOTLOADER_DATA_STACK_SIZE 1024
#tmp  li tp, SRAM_BASE + BOOTLOADER_CODE_SIZE + BOOTLOADER_DATA_GP_SIZE
#tmp  li sp, SRAM_BASE + BOOTLOADER_CODE_SIZE + BOOTLOADER_DATA_SIZE

  li sp, SRAM_BASE + SRAM_SIZE
    40000138:	40010137          	lui	sp,0x40010
  li tp, SRAM_BASE + SRAM_SIZE - BOOTLOADER_DATA_STACK_SIZE - BOOTLOADER_DATA_TLS_SIZE
    4000013c:	40010237          	lui	tp,0x40010
    40000140:	a002021b          	addiw	tp,tp,-1536
  li gp, SRAM_BASE + SRAM_SIZE - BOOTLOADER_DATA_STACK_SIZE - BOOTLOADER_DATA_TLS_SIZE - BOOTLOADER_DATA_GP_SIZE
    40000144:	400101b7          	lui	gp,0x40010
    40000148:	8001819b          	addiw	gp,gp,-2048


  rdtime t0
    4000014c:	c01022f3          	rdtime	t0
  jal boot_init
    40000150:	6ec000ef          	jal	ra,4000083c <boot_init>
#  li s0, MAIN_MEM_BASE
#  jr s0 #jump to main memory space and never return back
  jr a0
    40000154:	00050067          	jr	a0

0000000040000158 <trap_entry>:

  .align 2
trap_entry:
  addi sp, sp, -272
    40000158:	ef010113          	addi	sp,sp,-272 # 4000fef0 <_end+0xf4b8>

  SREG x1, 1*REGBYTES(sp)
    4000015c:	00113423          	sd	ra,8(sp)
  SREG x2, 2*REGBYTES(sp)
    40000160:	00213823          	sd	sp,16(sp)
  SREG x3, 3*REGBYTES(sp)
    40000164:	00313c23          	sd	gp,24(sp)
  SREG x4, 4*REGBYTES(sp)
    40000168:	02413023          	sd	tp,32(sp)
  SREG x5, 5*REGBYTES(sp)
    4000016c:	02513423          	sd	t0,40(sp)
  SREG x6, 6*REGBYTES(sp)
    40000170:	02613823          	sd	t1,48(sp)
  SREG x7, 7*REGBYTES(sp)
    40000174:	02713c23          	sd	t2,56(sp)
  SREG x8, 8*REGBYTES(sp)
    40000178:	04813023          	sd	s0,64(sp)
  SREG x9, 9*REGBYTES(sp)
    4000017c:	04913423          	sd	s1,72(sp)
  SREG x10, 10*REGBYTES(sp)
    40000180:	04a13823          	sd	a0,80(sp)
  SREG x11, 11*REGBYTES(sp)
    40000184:	04b13c23          	sd	a1,88(sp)
  SREG x12, 12*REGBYTES(sp)
    40000188:	06c13023          	sd	a2,96(sp)
  SREG x13, 13*REGBYTES(sp)
    4000018c:	06d13423          	sd	a3,104(sp)
  SREG x14, 14*REGBYTES(sp)
    40000190:	06e13823          	sd	a4,112(sp)
  SREG x15, 15*REGBYTES(sp)
    40000194:	06f13c23          	sd	a5,120(sp)
  SREG x16, 16*REGBYTES(sp)
    40000198:	09013023          	sd	a6,128(sp)
  SREG x17, 17*REGBYTES(sp)
    4000019c:	09113423          	sd	a7,136(sp)
  SREG x18, 18*REGBYTES(sp)
    400001a0:	09213823          	sd	s2,144(sp)
  SREG x19, 19*REGBYTES(sp)
    400001a4:	09313c23          	sd	s3,152(sp)
  SREG x20, 20*REGBYTES(sp)
    400001a8:	0b413023          	sd	s4,160(sp)
  SREG x21, 21*REGBYTES(sp)
    400001ac:	0b513423          	sd	s5,168(sp)
  SREG x22, 22*REGBYTES(sp)
    400001b0:	0b613823          	sd	s6,176(sp)
  SREG x23, 23*REGBYTES(sp)
    400001b4:	0b713c23          	sd	s7,184(sp)
  SREG x24, 24*REGBYTES(sp)
    400001b8:	0d813023          	sd	s8,192(sp)
  SREG x25, 25*REGBYTES(sp)
    400001bc:	0d913423          	sd	s9,200(sp)
  SREG x26, 26*REGBYTES(sp)
    400001c0:	0da13823          	sd	s10,208(sp)
  SREG x27, 27*REGBYTES(sp)
    400001c4:	0db13c23          	sd	s11,216(sp)
  SREG x28, 28*REGBYTES(sp)
    400001c8:	0fc13023          	sd	t3,224(sp)
  SREG x29, 29*REGBYTES(sp)
    400001cc:	0fd13423          	sd	t4,232(sp)
  SREG x30, 30*REGBYTES(sp)
    400001d0:	0fe13823          	sd	t5,240(sp)
  SREG x31, 31*REGBYTES(sp)
    400001d4:	0ff13c23          	sd	t6,248(sp)

  csrr a0, mcause
    400001d8:	34202573          	csrr	a0,mcause
  csrr a1, mepc
    400001dc:	341025f3          	csrr	a1,mepc
  mv a2, sp
    400001e0:	00010613          	mv	a2,sp
  jal handle_trap
    400001e4:	678000ef          	jal	ra,4000085c <handle_trap>
  csrw mepc, a0
    400001e8:	34151073          	csrw	mepc,a0

  # Remain in M-mode after eret
  li t0, MSTATUS_MPP
    400001ec:	000022b7          	lui	t0,0x2
    400001f0:	8002829b          	addiw	t0,t0,-2048
  csrs mstatus, t0
    400001f4:	3002a073          	csrs	mstatus,t0

  LREG x1, 1*REGBYTES(sp)
    400001f8:	00813083          	ld	ra,8(sp)
  LREG x2, 2*REGBYTES(sp)
    400001fc:	01013103          	ld	sp,16(sp)
  LREG x3, 3*REGBYTES(sp)
    40000200:	01813183          	ld	gp,24(sp)
  LREG x4, 4*REGBYTES(sp)
    40000204:	02013203          	ld	tp,32(sp)
  LREG x5, 5*REGBYTES(sp)
    40000208:	02813283          	ld	t0,40(sp)
  LREG x6, 6*REGBYTES(sp)
    4000020c:	03013303          	ld	t1,48(sp)
  LREG x7, 7*REGBYTES(sp)
    40000210:	03813383          	ld	t2,56(sp)
  LREG x8, 8*REGBYTES(sp)
    40000214:	04013403          	ld	s0,64(sp)
  LREG x9, 9*REGBYTES(sp)
    40000218:	04813483          	ld	s1,72(sp)
  LREG x10, 10*REGBYTES(sp)
    4000021c:	05013503          	ld	a0,80(sp)
  LREG x11, 11*REGBYTES(sp)
    40000220:	05813583          	ld	a1,88(sp)
  LREG x12, 12*REGBYTES(sp)
    40000224:	06013603          	ld	a2,96(sp)
  LREG x13, 13*REGBYTES(sp)
    40000228:	06813683          	ld	a3,104(sp)
  LREG x14, 14*REGBYTES(sp)
    4000022c:	07013703          	ld	a4,112(sp)
  LREG x15, 15*REGBYTES(sp)
    40000230:	07813783          	ld	a5,120(sp)
  LREG x16, 16*REGBYTES(sp)
    40000234:	08013803          	ld	a6,128(sp)
  LREG x17, 17*REGBYTES(sp)
    40000238:	08813883          	ld	a7,136(sp)
  LREG x18, 18*REGBYTES(sp)
    4000023c:	09013903          	ld	s2,144(sp)
  LREG x19, 19*REGBYTES(sp)
    40000240:	09813983          	ld	s3,152(sp)
  LREG x20, 20*REGBYTES(sp)
    40000244:	0a013a03          	ld	s4,160(sp)
  LREG x21, 21*REGBYTES(sp)
    40000248:	0a813a83          	ld	s5,168(sp)
  LREG x22, 22*REGBYTES(sp)
    4000024c:	0b013b03          	ld	s6,176(sp)
  LREG x23, 23*REGBYTES(sp)
    40000250:	0b813b83          	ld	s7,184(sp)
  LREG x24, 24*REGBYTES(sp)
    40000254:	0c013c03          	ld	s8,192(sp)
  LREG x25, 25*REGBYTES(sp)
    40000258:	0c813c83          	ld	s9,200(sp)
  LREG x26, 26*REGBYTES(sp)
    4000025c:	0d013d03          	ld	s10,208(sp)
  LREG x27, 27*REGBYTES(sp)
    40000260:	0d813d83          	ld	s11,216(sp)
  LREG x28, 28*REGBYTES(sp)
    40000264:	0e013e03          	ld	t3,224(sp)
  LREG x29, 29*REGBYTES(sp)
    40000268:	0e813e83          	ld	t4,232(sp)
  LREG x30, 30*REGBYTES(sp)
    4000026c:	0f013f03          	ld	t5,240(sp)
  LREG x31, 31*REGBYTES(sp)
    40000270:	0f813f83          	ld	t6,248(sp)

  addi sp, sp, 272
    40000274:	11010113          	addi	sp,sp,272
  mret
    40000278:	30200073          	mret

Disassembly of section .text:

000000004000027c <delay_sw>:
#include <math.h>
#include "util.h"
#include "zqh_common_def.h"

void delay_sw(int a) {
    for (int i = 0; i < a; i ++) {
    4000027c:	00a05a63          	blez	a0,40000290 <delay_sw+0x14>
    40000280:	00000793          	li	a5,0
        asm volatile ("nop");
    40000284:	00000013          	nop
    for (int i = 0; i < a; i ++) {
    40000288:	0017879b          	addiw	a5,a5,1
    4000028c:	fef51ce3          	bne	a0,a5,40000284 <delay_sw+0x8>
    }
}
    40000290:	00008067          	ret

0000000040000294 <delay_ms>:

//in 50MHz clock
//in ms: a = 1000 means 1 second
void delay_ms(uint32_t a) {
    for (uint32_t i = 0; i < a; i++) {
    40000294:	00000713          	li	a4,0
void delay_ms(uint32_t a) {
    40000298:	000026b7          	lui	a3,0x2
    4000029c:	49f68693          	addi	a3,a3,1183 # 249f <_tbss_end+0x243b>
    for (uint32_t i = 0; i < a; i++) {
    400002a0:	02050063          	beqz	a0,400002c0 <delay_ms+0x2c>
void delay_ms(uint32_t a) {
    400002a4:	00068793          	mv	a5,a3
        for (uint32_t j = 0; j < 9375; j++) {
            asm volatile ("nop");
    400002a8:	00000013          	nop
    400002ac:	fff7879b          	addiw	a5,a5,-1
        for (uint32_t j = 0; j < 9375; j++) {
    400002b0:	fe079ce3          	bnez	a5,400002a8 <delay_ms+0x14>
    for (uint32_t i = 0; i < a; i++) {
    400002b4:	0017071b          	addiw	a4,a4,1
    400002b8:	fee516e3          	bne	a0,a4,400002a4 <delay_ms+0x10>
        }
    }
}
    400002bc:	00008067          	ret
    400002c0:	00008067          	ret

00000000400002c4 <pll_init>:

int pll_init() {
    //*CRG_CTRL_CORE_PLL_CFG = 0x01010a02;//1GHz
    *CRG_CTRL_CORE_PLL_CFG = 0x01010104;//50MHz as FPGA's
    400002c4:	10000737          	lui	a4,0x10000
    400002c8:	010107b7          	lui	a5,0x1010
    400002cc:	1047879b          	addiw	a5,a5,260
    400002d0:	00f72223          	sw	a5,4(a4) # 10000004 <_tbss_end+0xfffffa0>
    while(1) {
        if ((*CRG_CTRL_CORE_PLL_CFG & 0x80000000) != 0) {
    400002d4:	00472783          	lw	a5,4(a4)
    400002d8:	fe07dee3          	bgez	a5,400002d4 <pll_init+0x10>
            *CRG_CTRL_CORE_PLL_CFG = *CRG_CTRL_CORE_PLL_CFG & 0xfeffffff;//disable bypass
    400002dc:	10000737          	lui	a4,0x10000
    400002e0:	00472683          	lw	a3,4(a4) # 10000004 <_tbss_end+0xfffffa0>
    400002e4:	ff0007b7          	lui	a5,0xff000
    400002e8:	fff78793          	addi	a5,a5,-1 # fffffffffeffffff <_end+0xffffffffbefff5c7>
    400002ec:	00d7f7b3          	and	a5,a5,a3
    400002f0:	00f72223          	sw	a5,4(a4)
            break;
        }
    }
    #ifdef HAS_ETH
    *CRG_CTRL_ETH_PLL_CFG = 0x03010508;
    400002f4:	030107b7          	lui	a5,0x3010
    400002f8:	5087879b          	addiw	a5,a5,1288
    400002fc:	00f72423          	sw	a5,8(a4)
    while(1) {
        if ((*CRG_CTRL_ETH_PLL_CFG & 0x80000000) != 0) {
    40000300:	00872783          	lw	a5,8(a4)
    40000304:	fe07dee3          	bgez	a5,40000300 <pll_init+0x3c>
            *CRG_CTRL_ETH_PLL_CFG = *CRG_CTRL_ETH_PLL_CFG & 0xfeffffff;//disable bypass
    40000308:	10000737          	lui	a4,0x10000
    4000030c:	00872683          	lw	a3,8(a4) # 10000008 <_tbss_end+0xfffffa4>
    40000310:	ff0007b7          	lui	a5,0xff000
    40000314:	fff78793          	addi	a5,a5,-1 # fffffffffeffffff <_end+0xffffffffbefff5c7>
    40000318:	00d7f7b3          	and	a5,a5,a3
    4000031c:	00f72423          	sw	a5,8(a4)
            *CRG_CTRL_ETH_PLL_CFG = *CRG_CTRL_ETH_PLL_CFG | 0x02000000;//set en
    40000320:	00872783          	lw	a5,8(a4)
    40000324:	020006b7          	lui	a3,0x2000
    40000328:	00d7e7b3          	or	a5,a5,a3
    4000032c:	00f72423          	sw	a5,8(a4)
            *CRG_CTRL_RESET_CFG = *CRG_CTRL_RESET_CFG | 0x09; //dereset ddr_phy and ddr_mc
            break;
        }
    }
    #endif
}
    40000330:	00008067          	ret

0000000040000334 <strlen>:

size_t strlen(const char *s)
{
  const char *p = s;
  while (*p)
    40000334:	00054783          	lbu	a5,0(a0)
    40000338:	00078e63          	beqz	a5,40000354 <strlen+0x20>
  const char *p = s;
    4000033c:	00050793          	mv	a5,a0
    p++;
    40000340:	00178793          	addi	a5,a5,1
  while (*p)
    40000344:	0007c703          	lbu	a4,0(a5)
    40000348:	fe071ce3          	bnez	a4,40000340 <strlen+0xc>
  return p - s;
}
    4000034c:	40a78533          	sub	a0,a5,a0
    40000350:	00008067          	ret
  const char *p = s;
    40000354:	00050793          	mv	a5,a0
    40000358:	ff5ff06f          	j	4000034c <strlen+0x18>

000000004000035c <uart0_tx_char>:

void uart0_tx_char(char ch) {
    while(((*UART0_TXDATA) & 0x80000000) != 0);
    4000035c:	10013737          	lui	a4,0x10013
    40000360:	00072783          	lw	a5,0(a4) # 10013000 <_tbss_end+0x10012f9c>
    40000364:	fe07cee3          	bltz	a5,40000360 <uart0_tx_char+0x4>
    *UART0_TXDATA = ch;
    40000368:	0005051b          	sext.w	a0,a0
    4000036c:	100137b7          	lui	a5,0x10013
    40000370:	00a7a023          	sw	a0,0(a5) # 10013000 <_tbss_end+0x10012f9c>
}
    40000374:	00008067          	ret

0000000040000378 <uart0_rx_char>:

char uart0_rx_char() {
    uint32_t rxdata;
    rxdata = *UART0_RXDATA;
    40000378:	100137b7          	lui	a5,0x10013
    4000037c:	0047a503          	lw	a0,4(a5) # 10013004 <_tbss_end+0x10012fa0>
    40000380:	0005051b          	sext.w	a0,a0
    while((rxdata & 0x80000000) != 0){
    40000384:	00055863          	bgez	a0,40000394 <uart0_rx_char+0x1c>
        rxdata = *UART0_RXDATA;
    40000388:	0047a503          	lw	a0,4(a5)
    4000038c:	0005051b          	sext.w	a0,a0
    while((rxdata & 0x80000000) != 0){
    40000390:	fe054ce3          	bltz	a0,40000388 <uart0_rx_char+0x10>
    }
    return rxdata;
}
    40000394:	0ff57513          	andi	a0,a0,255
    40000398:	00008067          	ret

000000004000039c <my_itoa_32>:

const char i2a_tab[16] = {'0','1','2','3','4','5','6','7','8','9','A','B','C','D','E','F'};
char* my_itoa_32(uint32_t a, char *buf) {
    4000039c:	00758693          	addi	a3,a1,7
    400003a0:	00000713          	li	a4,0
    uint32_t len;
    len = 8;
    for (int i = 0; i < len; i++) {
        buf[len - 1 - i] = i2a_tab[(a >> (i*4))%16];
    400003a4:	00000817          	auipc	a6,0x0
    400003a8:	54480813          	addi	a6,a6,1348 # 400008e8 <i2a_tab>
    for (int i = 0; i < len; i++) {
    400003ac:	02000613          	li	a2,32
        buf[len - 1 - i] = i2a_tab[(a >> (i*4))%16];
    400003b0:	00e557bb          	srlw	a5,a0,a4
    400003b4:	00f7f793          	andi	a5,a5,15
    400003b8:	00f807b3          	add	a5,a6,a5
    400003bc:	0007c783          	lbu	a5,0(a5)
    400003c0:	00f68023          	sb	a5,0(a3) # 2000000 <_tbss_end+0x1ffff9c>
    400003c4:	0047071b          	addiw	a4,a4,4
    400003c8:	fff68693          	addi	a3,a3,-1
    for (int i = 0; i < len; i++) {
    400003cc:	fec712e3          	bne	a4,a2,400003b0 <my_itoa_32+0x14>
    }
    buf[len] = 0;
    400003d0:	00058423          	sb	zero,8(a1)
    return buf;
}
    400003d4:	00058513          	mv	a0,a1
    400003d8:	00008067          	ret

00000000400003dc <simple_print_str>:


void simple_print_str(char *str) {
    400003dc:	ff010113          	addi	sp,sp,-16
    400003e0:	00113423          	sd	ra,8(sp)
    400003e4:	00813023          	sd	s0,0(sp)
    400003e8:	00050413          	mv	s0,a0
    int len;

    len = strlen(str);
    400003ec:	f49ff0ef          	jal	ra,40000334 <strlen>
    for (int i = 0; i< len; i++) {
    400003f0:	0005079b          	sext.w	a5,a0
    400003f4:	02f05863          	blez	a5,40000424 <simple_print_str+0x48>
    400003f8:	00040793          	mv	a5,s0
    400003fc:	00140413          	addi	s0,s0,1
    40000400:	fff5069b          	addiw	a3,a0,-1
    40000404:	02069693          	slli	a3,a3,0x20
    40000408:	0206d693          	srli	a3,a3,0x20
    4000040c:	00d406b3          	add	a3,s0,a3
        //while(((*UART0_TXDATA) & 0x80000000) != 0);
        //*UART0_TXDATA = ch;
        uart0_tx_char(ch);
    //use print_monitor
    #else
        *PRINT_PTR_HART(0) = ch;
    40000410:	1ff10637          	lui	a2,0x1ff10
        simple_print_char(str[i]);
    40000414:	0007c703          	lbu	a4,0(a5)
        *PRINT_PTR_HART(0) = ch;
    40000418:	f0e60023          	sb	a4,-256(a2) # 1ff0ff00 <_tbss_end+0x1ff0fe9c>
    4000041c:	00178793          	addi	a5,a5,1
    for (int i = 0; i< len; i++) {
    40000420:	fed79ae3          	bne	a5,a3,40000414 <simple_print_str+0x38>
}
    40000424:	00813083          	ld	ra,8(sp)
    40000428:	00013403          	ld	s0,0(sp)
    4000042c:	01010113          	addi	sp,sp,16
    40000430:	00008067          	ret

0000000040000434 <simple_uart0_get_str>:
char* simple_uart0_get_str(char *buf) {
    40000434:	fd010113          	addi	sp,sp,-48
    40000438:	02113423          	sd	ra,40(sp)
    4000043c:	02813023          	sd	s0,32(sp)
    40000440:	00913c23          	sd	s1,24(sp)
    40000444:	01213823          	sd	s2,16(sp)
    40000448:	01313423          	sd	s3,8(sp)
    4000044c:	01413023          	sd	s4,0(sp)
    40000450:	00050913          	mv	s2,a0
        tmp_str = uart0_rx_char();
    40000454:	f25ff0ef          	jal	ra,40000378 <uart0_rx_char>
    40000458:	00090493          	mv	s1,s2
    idx = 0;
    4000045c:	00000413          	li	s0,0
        if (tmp_str == '\n') {
    40000460:	00a00a13          	li	s4,10
        if (idx > 80) {
    40000464:	05100993          	li	s3,81
        if (tmp_str == '\n') {
    40000468:	01450c63          	beq	a0,s4,40000480 <simple_uart0_get_str+0x4c>
        buf[idx] = tmp_str;
    4000046c:	00a48023          	sb	a0,0(s1)
        idx ++;
    40000470:	0014041b          	addiw	s0,s0,1
        tmp_str = uart0_rx_char();
    40000474:	f05ff0ef          	jal	ra,40000378 <uart0_rx_char>
    40000478:	00148493          	addi	s1,s1,1
        if (idx > 80) {
    4000047c:	ff3416e3          	bne	s0,s3,40000468 <simple_uart0_get_str+0x34>
        buf[idx] = tmp_str;
    40000480:	02041793          	slli	a5,s0,0x20
    40000484:	0207d793          	srli	a5,a5,0x20
    40000488:	00f907b3          	add	a5,s2,a5
    4000048c:	00a00713          	li	a4,10
    40000490:	00e78023          	sb	a4,0(a5)
        idx ++;
    40000494:	0014041b          	addiw	s0,s0,1
    buf[idx] = 0;
    40000498:	02041413          	slli	s0,s0,0x20
    4000049c:	02045413          	srli	s0,s0,0x20
    400004a0:	00890433          	add	s0,s2,s0
    400004a4:	00040023          	sb	zero,0(s0)
}
    400004a8:	00090513          	mv	a0,s2
    400004ac:	02813083          	ld	ra,40(sp)
    400004b0:	02013403          	ld	s0,32(sp)
    400004b4:	01813483          	ld	s1,24(sp)
    400004b8:	01013903          	ld	s2,16(sp)
    400004bc:	00813983          	ld	s3,8(sp)
    400004c0:	00013a03          	ld	s4,0(sp)
    400004c4:	03010113          	addi	sp,sp,48
    400004c8:	00008067          	ret

00000000400004cc <uint_max>:
    return (a > b) ? a : b;
    400004cc:	00058793          	mv	a5,a1
    400004d0:	00a5f463          	bgeu	a1,a0,400004d8 <uint_max+0xc>
    400004d4:	00050793          	mv	a5,a0
}
    400004d8:	0007851b          	sext.w	a0,a5
    400004dc:	00008067          	ret

00000000400004e0 <ddr_init>:
int ddr_init() {
    400004e0:	fd010113          	addi	sp,sp,-48
    400004e4:	02113423          	sd	ra,40(sp)
    400004e8:	02813023          	sd	s0,32(sp)
    400004ec:	00913c23          	sd	s1,24(sp)
    400004f0:	01213823          	sd	s2,16(sp)
    400004f4:	01313423          	sd	s3,8(sp)
    400004f8:	01413023          	sd	s4,0(sp)
    *DDR_MC_CTRL_CFG_REG(0) = 0x600;//clean start, use DDR3
    400004fc:	10030437          	lui	s0,0x10030
    40000500:	60000793          	li	a5,1536
    40000504:	00f42023          	sw	a5,0(s0) # 10030000 <_tbss_end+0x1002ff9c>
    *DDR_MC_PHY_AC_CFG_REG(0) = 0;
    40000508:	100347b7          	lui	a5,0x10034
    4000050c:	0407a023          	sw	zero,64(a5) # 10034040 <_tbss_end+0x10033fdc>
    *DDR_MC_PHY_AC_CFG_REG(1) = 0; //TBD
    40000510:	0407a223          	sw	zero,68(a5)
    *DDR_MC_PHY_AC_CFG_REG(2) = 0; //TBD
    40000514:	0407a423          	sw	zero,72(a5)
    *DDR_MC_PHY_AC_CFG_REG(3) = 0; //TBD
    40000518:	0407a623          	sw	zero,76(a5)
    *DDR_MC_PHY_AC_CFG_REG(4) = 0; //TBD
    4000051c:	0407a823          	sw	zero,80(a5)
    *DDR_MC_PHY_AC_CFG_REG(5) = 0; //TBD
    40000520:	0407aa23          	sw	zero,84(a5)
    *DDR_MC_PHY_AC_CFG_REG(6) = 0; //TBD
    40000524:	0407ac23          	sw	zero,88(a5)
    *DDR_MC_PHY_AC_CFG_REG(7) = 0; //TBD
    40000528:	0407ae23          	sw	zero,92(a5)
    *DDR_MC_PHY_AC_CFG_REG(8) = 0; //TBD
    4000052c:	0607a023          	sw	zero,96(a5)
    *DDR_MC_PHY_AC_CFG_REG(9) = 0; //TBD
    40000530:	0607a223          	sw	zero,100(a5)
    *DDR_MC_PHY_AC_CFG_REG(10) = 0; //TBD
    40000534:	0607a423          	sw	zero,104(a5)
    *DDR_MC_PHY_AC_CFG_REG(11) = 0; //TBD
    40000538:	0607a623          	sw	zero,108(a5)
        *DDR_MC_PHY_DS_CFG_REG(0+i*8) = 0x00000027;
    4000053c:	02700713          	li	a4,39
    40000540:	00e7a023          	sw	a4,0(a5)
        *DDR_MC_PHY_DS_CFG_REG(1+i*8) = 0x00000027;
    40000544:	00e7a223          	sw	a4,4(a5)
        *DDR_MC_PHY_DS_CFG_REG(2+i*8) = 0x00000000;
    40000548:	0007a423          	sw	zero,8(a5)
        *DDR_MC_PHY_DS_CFG_REG(3+i*8) = 0x000000ff;//dll_master_ctrl
    4000054c:	0ff00613          	li	a2,255
    40000550:	00c7a623          	sw	a2,12(a5)
        *DDR_MC_PHY_DS_CFG_REG(4+i*8) = (rd_dqs_dll_delay << 16) | (wr_dq_dll_delay << 8) | wr_dqs_dll_delay;//dll_slave_ctrl, @100MHz
    40000554:	004046b7          	lui	a3,0x404
    40000558:	00d7a823          	sw	a3,16(a5)
        *DDR_MC_PHY_DS_CFG_REG(5+i*8) = 0x00000000;
    4000055c:	0007aa23          	sw	zero,20(a5)
        *DDR_MC_PHY_DS_CFG_REG(6+i*8) = 0x00000000;
    40000560:	0007ac23          	sw	zero,24(a5)
        *DDR_MC_PHY_DS_CFG_REG(7+i*8) = 0x00000000;
    40000564:	0007ae23          	sw	zero,28(a5)
        *DDR_MC_PHY_DS_CFG_REG(0+i*8) = 0x00000027;
    40000568:	02e7a023          	sw	a4,32(a5)
        *DDR_MC_PHY_DS_CFG_REG(1+i*8) = 0x00000027;
    4000056c:	02e7a223          	sw	a4,36(a5)
        *DDR_MC_PHY_DS_CFG_REG(2+i*8) = 0x00000000;
    40000570:	0207a423          	sw	zero,40(a5)
        *DDR_MC_PHY_DS_CFG_REG(3+i*8) = 0x000000ff;//dll_master_ctrl
    40000574:	02c7a623          	sw	a2,44(a5)
        *DDR_MC_PHY_DS_CFG_REG(4+i*8) = (rd_dqs_dll_delay << 16) | (wr_dq_dll_delay << 8) | wr_dqs_dll_delay;//dll_slave_ctrl, @100MHz
    40000578:	02d7a823          	sw	a3,48(a5)
        *DDR_MC_PHY_DS_CFG_REG(5+i*8) = 0x00000000;
    4000057c:	0207aa23          	sw	zero,52(a5)
        *DDR_MC_PHY_DS_CFG_REG(6+i*8) = 0x00000000;
    40000580:	0207ac23          	sw	zero,56(a5)
        *DDR_MC_PHY_DS_CFG_REG(7+i*8) = 0x00000000;
    40000584:	0207ae23          	sw	zero,60(a5)
   simple_print_str("ddr_init step 0\n");
    40000588:	00000517          	auipc	a0,0x0
    4000058c:	39850513          	addi	a0,a0,920 # 40000920 <mr0_cas_table+0x10>
    40000590:	e4dff0ef          	jal	ra,400003dc <simple_print_str>
    *DDR_MC_CTRL_CFG_REG(18) = (trp << 16) | (bstlen << 8) | (twr + trp);//trp_ab = trp = 11, bstlen = 3(burst 8), tdal = twr + trp
    40000594:	000607b7          	lui	a5,0x60
    40000598:	30c7879b          	addiw	a5,a5,780
    4000059c:	04f42423          	sw	a5,72(s0)
    *DDR_MC_CTRL_CFG_REG(51) = 0xffffffff;//interrupt disable
    400005a0:	fff00793          	li	a5,-1
    400005a4:	0cf42623          	sw	a5,204(s0)
    *DDR_MC_CTRL_CFG_REG(136) = 0xffffffff;//set int_ack to clean int_status
    400005a8:	22f42023          	sw	a5,544(s0)
    *DDR_MC_CTRL_CFG_REG(20) = (tref << 16) | (trfc_min + 1);//tref = 6250, trfc = > min and < max
    400005ac:	030d07b7          	lui	a5,0x30d0
    400005b0:	0697879b          	addiw	a5,a5,105
    400005b4:	04f42823          	sw	a5,80(s0)
    *DDR_MC_CTRL_CFG_REG(19) = 1 << 24;//tref_enable
    400005b8:	010007b7          	lui	a5,0x1000
    400005bc:	04f42623          	sw	a5,76(s0)
    *DDR_MC_CTRL_CFG_REG(11) = (cl << 25) | (0 << 24) | tdll;//cas latency = 11, tdll = 512. cas_lat[0] is harf cycle increase flag, cas_lat[31:25] is latency
    400005c0:	0c0007b7          	lui	a5,0xc000
    400005c4:	2007879b          	addiw	a5,a5,512
    400005c8:	02f42623          	sw	a5,44(s0)
    *DDR_MC_CTRL_CFG_REG(12) = (tccd << 24) | (0 << 16) | (al << 8) | wl;//tccd = 4, tbst_int_interval = 0, additive latency = 9, wrlat = 17
    400005cc:	040007b7          	lui	a5,0x4000
    400005d0:	4097879b          	addiw	a5,a5,1033
    400005d4:	02f42823          	sw	a5,48(s0)
    *DDR_MC_CTRL_CFG_REG(26) = mr0 << 8;//mr0
    400005d8:	000537b7          	lui	a5,0x53
    400005dc:	8007879b          	addiw	a5,a5,-2048
    400005e0:	06f42423          	sw	a5,104(s0)
    *DDR_MC_CTRL_CFG_REG(27) = (mr2 << 16) | mr1;//mr2, mr1
    400005e4:	020007b7          	lui	a5,0x2000
    400005e8:	0167879b          	addiw	a5,a5,22
    400005ec:	06f42623          	sw	a5,108(s0)
    *DDR_MC_CTRL_CFG_REG(28) = mr3 << 16;//mr3
    400005f0:	06042823          	sw	zero,112(s0)
    *DDR_MC_CTRL_CFG_REG(17) = (0 << 8) | twr;//ap, twr
    400005f4:	00600793          	li	a5,6
    400005f8:	04f42223          	sw	a5,68(s0)
    *DDR_MC_CTRL_CFG_REG(8) = trst_n;//trst_n, simulation need less
    400005fc:	0c800793          	li	a5,200
    40000600:	02f42023          	sw	a5,32(s0)
    *DDR_MC_CTRL_CFG_REG(9) = tcke_inactive;//tcke_inactive, simulation need less
    40000604:	1f400793          	li	a5,500
    40000608:	02f42223          	sw	a5,36(s0)
    *DDR_MC_CTRL_CFG_REG(23) = txsnr;//txsnr
    4000060c:	12c00793          	li	a5,300
    40000610:	04f42e23          	sw	a5,92(s0)
    *DDR_MC_CTRL_CFG_REG(37) = (tzqinit << 8) | 0;//tzqinit = zqcl * 2
    40000614:	000207b7          	lui	a5,0x20
    40000618:	08f42a23          	sw	a5,148(s0)
    *DDR_MC_CTRL_CFG_REG(38) = (tzqcs << 16) | tzqcl;//tzqcs, tzqcl
    4000061c:	004007b7          	lui	a5,0x400
    40000620:	1007879b          	addiw	a5,a5,256
    40000624:	08f42c23          	sw	a5,152(s0)
    *DDR_MC_CTRL_CFG_REG(14) = (tmrd << 24) | (trtp << 16) | (tfaw << 8) | trp;//tmrd, trtp, tfaw = 24, trp
    40000628:	040417b7          	lui	a5,0x4041
    4000062c:	4067879b          	addiw	a5,a5,1030
    40000630:	02f42c23          	sw	a5,56(s0)
    *DDR_MC_CTRL_CFG_REG(16) = trcd << 24;//trcd
    40000634:	060007b7          	lui	a5,0x6000
    40000638:	04f42023          	sw	a5,64(s0)
    *DDR_MC_CTRL_CFG_REG(13) = (twtr << 24) | (tras << 16) | (trc << 8) | trrd;//twtr, tras_min = 28, trc, trrd
    4000063c:	030f17b7          	lui	a5,0x30f1
    40000640:	5047879b          	addiw	a5,a5,1284
    40000644:	02f42a23          	sw	a5,52(s0)
    *DDR_MC_CTRL_CFG_REG(15) = (tras_max << 8) | tmod;//tras_max=0x1ffff, tmod
    40000648:	000017b7          	lui	a5,0x1
    4000064c:	90c7879b          	addiw	a5,a5,-1780
    40000650:	02f42e23          	sw	a5,60(s0)
    *DDR_MC_CTRL_CFG_REG(112) = (tdfi_ctrl_delay << 16) | (twrlat_adj << 8) | rdlat_adj;//tdfi_ctrl_delay = 2, twrlat_adj = 17, rdlat_adj = 20
    40000654:	000217b7          	lui	a5,0x21
    40000658:	90a7879b          	addiw	a5,a5,-1782
    4000065c:	1cf42023          	sw	a5,448(s0)
    *DDR_MC_CTRL_CFG_REG(128) = tphy_wrdata;//tphy_wrdata= 1
    40000660:	00100793          	li	a5,1
    40000664:	20f42023          	sw	a5,512(s0)
    *DDR_MC_CTRL_CFG_REG(68) = (odt_en << 24) | (todth_rd << 16) | (todth_wr << 8) | todtl_2cmd;//odt_en = 1, todth_rd = 4, todth_wr = 6, todtl_2cmd = 0
    40000668:	010407b7          	lui	a5,0x1040
    4000066c:	6007879b          	addiw	a5,a5,1536
    40000670:	10f42823          	sw	a5,272(s0)
    *DDR_MC_CTRL_CFG_REG(105) = (dll_rst_adj_dly << 16) | dll_rst_delay;//dll_rst_adj_dly=10, dll_rst_delay=10
    40000674:	000a07b7          	lui	a5,0xa0
    40000678:	00a7879b          	addiw	a5,a5,10
    4000067c:	1af42223          	sw	a5,420(s0)
    *DDR_MC_CTRL_CFG_REG(0) = *DDR_MC_CTRL_CFG_REG(0) | 0x1;//set start
    40000680:	00042783          	lw	a5,0(s0)
    40000684:	0017e793          	ori	a5,a5,1
    40000688:	00f42023          	sw	a5,0(s0)
    simple_print_str("ddr_init step 1\n");
    4000068c:	00000517          	auipc	a0,0x0
    40000690:	2ac50513          	addi	a0,a0,684 # 40000938 <mr0_cas_table+0x28>
    40000694:	d49ff0ef          	jal	ra,400003dc <simple_print_str>
        ddr_mc_reg = *DDR_MC_CTRL_CFG_REG(104);
    40000698:	1a042483          	lw	s1,416(s0)
        if (((*DDR_MC_CTRL_CFG_REG(104)) & 0x0100) != 0) {
    4000069c:	1a042783          	lw	a5,416(s0)
    400006a0:	0007879b          	sext.w	a5,a5
    400006a4:	1007f793          	andi	a5,a5,256
    400006a8:	04079c63          	bnez	a5,40000700 <ddr_init+0x220>
    400006ac:	0004849b          	sext.w	s1,s1
            simple_print_str("ddr_mc cke_status is:\n");
    400006b0:	00000a17          	auipc	s4,0x0
    400006b4:	2d0a0a13          	addi	s4,s4,720 # 40000980 <mr0_cas_table+0x70>
            simple_print_str("\n");
    400006b8:	00000997          	auipc	s3,0x0
    400006bc:	2e098993          	addi	s3,s3,736 # 40000998 <mr0_cas_table+0x88>
            delay_sw(300);//wait txpr ddr cycle
    400006c0:	12c00513          	li	a0,300
    400006c4:	bb9ff0ef          	jal	ra,4000027c <delay_sw>
            simple_print_str("ddr_mc cke_status is:\n");
    400006c8:	000a0513          	mv	a0,s4
    400006cc:	d11ff0ef          	jal	ra,400003dc <simple_print_str>
            simple_print_str(my_itoa_32(ddr_mc_reg, str_buf));
    400006d0:	00020593          	mv	a1,tp
    400006d4:	00048513          	mv	a0,s1
    400006d8:	cc5ff0ef          	jal	ra,4000039c <my_itoa_32>
    400006dc:	d01ff0ef          	jal	ra,400003dc <simple_print_str>
            simple_print_str("\n");
    400006e0:	00098513          	mv	a0,s3
    400006e4:	cf9ff0ef          	jal	ra,400003dc <simple_print_str>
        ddr_mc_reg = *DDR_MC_CTRL_CFG_REG(104);
    400006e8:	1a042483          	lw	s1,416(s0)
    400006ec:	0004849b          	sext.w	s1,s1
        if (((*DDR_MC_CTRL_CFG_REG(104)) & 0x0100) != 0) {
    400006f0:	1a042783          	lw	a5,416(s0)
    400006f4:	0007879b          	sext.w	a5,a5
    400006f8:	1007f793          	andi	a5,a5,256
    400006fc:	fc0782e3          	beqz	a5,400006c0 <ddr_init+0x1e0>
            delay_sw(300);//wait txpr ddr cycle
    40000700:	12c00513          	li	a0,300
    40000704:	b79ff0ef          	jal	ra,4000027c <delay_sw>
            simple_print_str("ddr_mc cke_status done\n");
    40000708:	00000517          	auipc	a0,0x0
    4000070c:	24850513          	addi	a0,a0,584 # 40000950 <mr0_cas_table+0x40>
    40000710:	ccdff0ef          	jal	ra,400003dc <simple_print_str>
    *DDR_MC_CTRL_CFG_REG(25) = 0x03020000;//all chip select, write mr0/1/2/3
    40000714:	100307b7          	lui	a5,0x10030
    40000718:	03020737          	lui	a4,0x3020
    4000071c:	06e7a223          	sw	a4,100(a5) # 10030064 <_tbss_end+0x10030000>
   simple_print_str("ddr_init step 2\n");
    40000720:	00000517          	auipc	a0,0x0
    40000724:	24850513          	addi	a0,a0,584 # 40000968 <mr0_cas_table+0x58>
    40000728:	cb5ff0ef          	jal	ra,400003dc <simple_print_str>
        if (((*DDR_MC_CTRL_CFG_REG(49)) & 0x00020000) != 0) {
    4000072c:	100306b7          	lui	a3,0x10030
    40000730:	00020737          	lui	a4,0x20
    40000734:	0c46a783          	lw	a5,196(a3) # 100300c4 <_tbss_end+0x10030060>
    40000738:	00e7f7b3          	and	a5,a5,a4
    4000073c:	fe078ce3          	beqz	a5,40000734 <ddr_init+0x254>
            simple_print_str("ddr_mc mrs done\n");
    40000740:	00000517          	auipc	a0,0x0
    40000744:	26050513          	addi	a0,a0,608 # 400009a0 <mr0_cas_table+0x90>
    40000748:	c95ff0ef          	jal	ra,400003dc <simple_print_str>
   simple_print_str("ddr_init step 3\n");
    4000074c:	00000517          	auipc	a0,0x0
    40000750:	26c50513          	addi	a0,a0,620 # 400009b8 <mr0_cas_table+0xa8>
    40000754:	c89ff0ef          	jal	ra,400003dc <simple_print_str>
        if ((*DDR_MC_CTRL_CFG_REG(49) & 0x10) != 0) {
    40000758:	10030737          	lui	a4,0x10030
    4000075c:	0c472783          	lw	a5,196(a4) # 100300c4 <_tbss_end+0x10030060>
    40000760:	0007879b          	sext.w	a5,a5
    40000764:	0107f793          	andi	a5,a5,16
    40000768:	fe078ae3          	beqz	a5,4000075c <ddr_init+0x27c>
            simple_print_str("ddr_mc init completed\n");
    4000076c:	00000517          	auipc	a0,0x0
    40000770:	26450513          	addi	a0,a0,612 # 400009d0 <mr0_cas_table+0xc0>
    40000774:	c69ff0ef          	jal	ra,400003dc <simple_print_str>
    *DDR_MC_AP_CFG_REG(0) = 0xc0000000;//
    40000778:	100387b7          	lui	a5,0x10038
    4000077c:	c0000737          	lui	a4,0xc0000
    40000780:	00e7a023          	sw	a4,0(a5) # 10038000 <_tbss_end+0x10037f9c>
    *DDR_MC_AP_CFG_REG(1) = 0x80000000;//enable
    40000784:	80000737          	lui	a4,0x80000
    40000788:	00e7a223          	sw	a4,4(a5)
}
    4000078c:	02813083          	ld	ra,40(sp)
    40000790:	02013403          	ld	s0,32(sp)
    40000794:	01813483          	ld	s1,24(sp)
    40000798:	01013903          	ld	s2,16(sp)
    4000079c:	00813983          	ld	s3,8(sp)
    400007a0:	00013a03          	ld	s4,0(sp)
    400007a4:	03010113          	addi	sp,sp,48
    400007a8:	00008067          	ret

00000000400007ac <simple_print_char>:
        *PRINT_PTR_HART(0) = ch;
    400007ac:	1ff107b7          	lui	a5,0x1ff10
    400007b0:	f0a78023          	sb	a0,-256(a5) # 1ff0ff00 <_tbss_end+0x1ff0fe9c>
    #endif

}
    400007b4:	00008067          	ret

00000000400007b8 <uart0_init>:

void uart0_init() {
    //gpio hw iof enable
    *GPIO_IOF_EN(0) = *GPIO_IOF_EN(0) | 0x3;
    400007b8:	10012737          	lui	a4,0x10012
    400007bc:	03872783          	lw	a5,56(a4) # 10012038 <_tbss_end+0x10011fd4>
    400007c0:	0037e793          	ori	a5,a5,3
    400007c4:	02f72c23          	sw	a5,56(a4)

    *UART0_TXCTRL = 1;//enable tx, nstop = 0(1 stop bit)
    400007c8:	100137b7          	lui	a5,0x10013
    400007cc:	00100713          	li	a4,1
    400007d0:	00e7a423          	sw	a4,8(a5) # 10013008 <_tbss_end+0x10012fa4>
    //*UART0_TXCTRL = 3;//enable tx, nstop = 1(2 stop bit)
    //*UART0_TXCTRL = 0x5; //parity odd check
    //*UART0_TXCTRL = 0x9; //parity even check
    //*UART0_TXCTRL = 0xd; //parity bit force to 0
    //*UART0_TXDATA = 0;
    *UART0_RXCTRL = 1;//enable rx
    400007d4:	00e7a623          	sw	a4,12(a5)
    //*UART0_RXCTRL = 0;//disable rx
    //*UART0_RXCTRL = 0x5; //parity odd check
    *UART0_RXDATA = 0;
    400007d8:	0007a223          	sw	zero,4(a5)
    *UART0_IE     = 0;
    400007dc:	0007a823          	sw	zero,16(a5)
    //*UART0_DIV    = 2; //speedup simulation, use fastest speed
    *UART0_DIV    = 53; //57600 baud ratio @ 50MHz clock(FPGA)
    400007e0:	03500713          	li	a4,53
    400007e4:	00e7ac23          	sw	a4,24(a5)
}
    400007e8:	00008067          	ret

00000000400007ec <hw_init>:

void hw_init() {
    if (read_csr(mhartid) == 0) {
    400007ec:	f14027f3          	csrr	a5,mhartid
    400007f0:	00078463          	beqz	a5,400007f8 <hw_init+0xc>
    400007f4:	0000006f          	j	400007f4 <hw_init+0x8>
void hw_init() {
    400007f8:	ff010113          	addi	sp,sp,-16
    400007fc:	00113423          	sd	ra,8(sp)
        pll_init();
    40000800:	ac5ff0ef          	jal	ra,400002c4 <pll_init>
        uart0_init();
    40000804:	fb5ff0ef          	jal	ra,400007b8 <uart0_init>
        #endif
    }
    else {
        while(1);
    }
}
    40000808:	00813083          	ld	ra,8(sp)
    4000080c:	01010113          	addi	sp,sp,16
    40000810:	00008067          	ret

0000000040000814 <load_img>:

uint32_t load_img() {
    40000814:	ff010113          	addi	sp,sp,-16
    40000818:	00113423          	sd	ra,8(sp)
    simple_print_str("bootloader start!\n");
    4000081c:	00000517          	auipc	a0,0x0
    40000820:	1cc50513          	addi	a0,a0,460 # 400009e8 <mr0_cas_table+0xd8>
    40000824:	bb9ff0ef          	jal	ra,400003dc <simple_print_str>

    //simulation use this
    #ifdef IMP_MODE_SIM
    __asm__ __volatile__ ("fence.i");
    40000828:	0000100f          	fence.i
//tmp    while(1) {
//tmp        simple_uart0_get_str(str_buf);
//tmp        //replay the get string
//tmp        //simple_print_str(str_buf);
//tmp    }
}
    4000082c:	40002537          	lui	a0,0x40002
    40000830:	00813083          	ld	ra,8(sp)
    40000834:	01010113          	addi	sp,sp,16
    40000838:	00008067          	ret

000000004000083c <boot_init>:

uint32_t boot_init()
{
    4000083c:	ff010113          	addi	sp,sp,-16
    40000840:	00113423          	sd	ra,8(sp)
    uint32_t ret_v;
    //init_tls();
    hw_init();
    40000844:	fa9ff0ef          	jal	ra,400007ec <hw_init>
    ret_v = load_img();
    40000848:	fcdff0ef          	jal	ra,40000814 <load_img>
    return ret_v;
}
    4000084c:	0005051b          	sext.w	a0,a0
    40000850:	00813083          	ld	ra,8(sp)
    40000854:	01010113          	addi	sp,sp,16
    40000858:	00008067          	ret

000000004000085c <handle_trap>:

uintptr_t __attribute__((weak)) handle_trap(uintptr_t cause, uintptr_t epc, uintptr_t regs[32])
{
    4000085c:	fe010113          	addi	sp,sp,-32
    40000860:	00113c23          	sd	ra,24(sp)
    40000864:	00813823          	sd	s0,16(sp)
    40000868:	00913423          	sd	s1,8(sp)
    4000086c:	01213023          	sd	s2,0(sp)
    40000870:	00050913          	mv	s2,a0
    40000874:	00058493          	mv	s1,a1
    simple_print_str("boot exception: cause = ");
    40000878:	00000517          	auipc	a0,0x0
    4000087c:	18850513          	addi	a0,a0,392 # 40000a00 <mr0_cas_table+0xf0>
    40000880:	b5dff0ef          	jal	ra,400003dc <simple_print_str>
    simple_print_str(my_itoa_32(cause, str_buf));
    40000884:	00020593          	mv	a1,tp
    40000888:	0009051b          	sext.w	a0,s2
    4000088c:	b11ff0ef          	jal	ra,4000039c <my_itoa_32>
    40000890:	b4dff0ef          	jal	ra,400003dc <simple_print_str>
    simple_print_str("\n");
    40000894:	00000517          	auipc	a0,0x0
    40000898:	10450513          	addi	a0,a0,260 # 40000998 <mr0_cas_table+0x88>
    4000089c:	b41ff0ef          	jal	ra,400003dc <simple_print_str>
    simple_print_str("boot exception: epc = ");
    400008a0:	00000517          	auipc	a0,0x0
    400008a4:	18050513          	addi	a0,a0,384 # 40000a20 <mr0_cas_table+0x110>
    400008a8:	b35ff0ef          	jal	ra,400003dc <simple_print_str>
    simple_print_str(my_itoa_32(epc, str_buf));
    400008ac:	00020593          	mv	a1,tp
    400008b0:	0004851b          	sext.w	a0,s1
    400008b4:	ae9ff0ef          	jal	ra,4000039c <my_itoa_32>
    400008b8:	b25ff0ef          	jal	ra,400003dc <simple_print_str>
    simple_print_str("\n");
    400008bc:	00000517          	auipc	a0,0x0
    400008c0:	0dc50513          	addi	a0,a0,220 # 40000998 <mr0_cas_table+0x88>
    400008c4:	b19ff0ef          	jal	ra,400003dc <simple_print_str>

    return epc;
}
    400008c8:	00048513          	mv	a0,s1
    400008cc:	01813083          	ld	ra,24(sp)
    400008d0:	01013403          	ld	s0,16(sp)
    400008d4:	00813483          	ld	s1,8(sp)
    400008d8:	00013903          	ld	s2,0(sp)
    400008dc:	02010113          	addi	sp,sp,32
    400008e0:	00008067          	ret

Disassembly of section .rodata:

00000000400008e8 <i2a_tab>:
const char i2a_tab[16] = {'0','1','2','3','4','5','6','7','8','9','A','B','C','D','E','F'};
    400008e8:	3130                	fld	fa2,96(a0)
    400008ea:	3332                	fld	ft6,296(sp)
    400008ec:	3534                	fld	fa3,104(a0)
    400008ee:	3736                	fld	fa4,360(sp)
    400008f0:	3938                	fld	fa4,112(a0)
    400008f2:	4241                	li	tp,16
    400008f4:	46454443          	fmadd.q	fs0,fa0,ft4,fs0,rmm

00000000400008f8 <mr0_wr_table>:
const uint8_t mr0_wr_table[17] = {0x0,0x0,0x0,0x0,0x0,0x1,0x2,0x3,0x4,0x0,0x5,0x0,0x6,0x0,0x7,0x0,0x0};
    400008f8:	0000                	unimp
    400008fa:	0000                	unimp
    400008fc:	0100                	addi	s0,sp,128
    400008fe:	0302                	c.slli64	t1
    40000900:	0004                	0x4
    40000902:	0005                	c.nop	1
    40000904:	0006                	c.slli	zero,0x1
    40000906:	00000007          	0x7
    4000090a:	0000                	unimp
    4000090c:	0000                	unimp
    4000090e:	0000                	unimp

0000000040000910 <mr0_cas_table>:
const uint8_t mr0_cas_table[15] = {0x0,0x0,0x0,0x0,0x0,0x2,0x4,0x6,0x8,0xa,0xc,0xe,0x1,0x3,0x5};
    40000910:	0000                	unimp
    40000912:	0000                	unimp
    40000914:	0200                	addi	s0,sp,256
    40000916:	0604                	addi	s1,sp,768
    40000918:	0a08                	addi	a0,sp,272
    4000091a:	0e0c                	addi	a1,sp,784
    4000091c:	0301                	addi	t1,t1,0
    4000091e:	0005                	c.nop	1
    40000920:	6464                	ld	s1,200(s0)
    40000922:	5f72                	lw	t5,60(sp)
    40000924:	6e69                	lui	t3,0x1a
    40000926:	7469                	lui	s0,0xffffa
    40000928:	7320                	ld	s0,96(a4)
    4000092a:	6574                	ld	a3,200(a0)
    4000092c:	2070                	fld	fa2,192(s0)
    4000092e:	0a30                	addi	a2,sp,280
    40000930:	0000                	unimp
    40000932:	0000                	unimp
    40000934:	0000                	unimp
    40000936:	0000                	unimp
    40000938:	6464                	ld	s1,200(s0)
    4000093a:	5f72                	lw	t5,60(sp)
    4000093c:	6e69                	lui	t3,0x1a
    4000093e:	7469                	lui	s0,0xffffa
    40000940:	7320                	ld	s0,96(a4)
    40000942:	6574                	ld	a3,200(a0)
    40000944:	2070                	fld	fa2,192(s0)
    40000946:	0a31                	addi	s4,s4,12
    40000948:	0000                	unimp
    4000094a:	0000                	unimp
    4000094c:	0000                	unimp
    4000094e:	0000                	unimp
    40000950:	6464                	ld	s1,200(s0)
    40000952:	5f72                	lw	t5,60(sp)
    40000954:	636d                	lui	t1,0x1b
    40000956:	6320                	ld	s0,64(a4)
    40000958:	735f656b          	0x735f656b
    4000095c:	6174                	ld	a3,192(a0)
    4000095e:	7574                	ld	a3,232(a0)
    40000960:	6f642073          	csrs	0x6f6,s0
    40000964:	656e                	ld	a0,216(sp)
    40000966:	000a                	c.slli	zero,0x2
    40000968:	6464                	ld	s1,200(s0)
    4000096a:	5f72                	lw	t5,60(sp)
    4000096c:	6e69                	lui	t3,0x1a
    4000096e:	7469                	lui	s0,0xffffa
    40000970:	7320                	ld	s0,96(a4)
    40000972:	6574                	ld	a3,200(a0)
    40000974:	2070                	fld	fa2,192(s0)
    40000976:	0a32                	slli	s4,s4,0xc
    40000978:	0000                	unimp
    4000097a:	0000                	unimp
    4000097c:	0000                	unimp
    4000097e:	0000                	unimp
    40000980:	6464                	ld	s1,200(s0)
    40000982:	5f72                	lw	t5,60(sp)
    40000984:	636d                	lui	t1,0x1b
    40000986:	6320                	ld	s0,64(a4)
    40000988:	735f656b          	0x735f656b
    4000098c:	6174                	ld	a3,192(a0)
    4000098e:	7574                	ld	a3,232(a0)
    40000990:	73692073          	csrs	0x736,s2
    40000994:	0a3a                	slli	s4,s4,0xe
    40000996:	0000                	unimp
    40000998:	000a                	c.slli	zero,0x2
    4000099a:	0000                	unimp
    4000099c:	0000                	unimp
    4000099e:	0000                	unimp
    400009a0:	6464                	ld	s1,200(s0)
    400009a2:	5f72                	lw	t5,60(sp)
    400009a4:	636d                	lui	t1,0x1b
    400009a6:	6d20                	ld	s0,88(a0)
    400009a8:	7372                	ld	t1,312(sp)
    400009aa:	6420                	ld	s0,72(s0)
    400009ac:	0a656e6f          	jal	t3,40056a52 <_end+0x5601a>
    400009b0:	0000                	unimp
    400009b2:	0000                	unimp
    400009b4:	0000                	unimp
    400009b6:	0000                	unimp
    400009b8:	6464                	ld	s1,200(s0)
    400009ba:	5f72                	lw	t5,60(sp)
    400009bc:	6e69                	lui	t3,0x1a
    400009be:	7469                	lui	s0,0xffffa
    400009c0:	7320                	ld	s0,96(a4)
    400009c2:	6574                	ld	a3,200(a0)
    400009c4:	2070                	fld	fa2,192(s0)
    400009c6:	00000a33          	add	s4,zero,zero
    400009ca:	0000                	unimp
    400009cc:	0000                	unimp
    400009ce:	0000                	unimp
    400009d0:	6464                	ld	s1,200(s0)
    400009d2:	5f72                	lw	t5,60(sp)
    400009d4:	636d                	lui	t1,0x1b
    400009d6:	6920                	ld	s0,80(a0)
    400009d8:	696e                	ld	s2,216(sp)
    400009da:	2074                	fld	fa3,192(s0)
    400009dc:	706d6f63          	bltu	s10,t1,400010fa <_end+0x6c2>
    400009e0:	656c                	ld	a1,200(a0)
    400009e2:	6574                	ld	a3,200(a0)
    400009e4:	0a64                	addi	s1,sp,284
    400009e6:	0000                	unimp
    400009e8:	6f62                	ld	t5,24(sp)
    400009ea:	6f6c746f          	jal	s0,400c80e0 <_end+0xc76a8>
    400009ee:	6461                	lui	s0,0x18
    400009f0:	7265                	lui	tp,0xffff9
    400009f2:	7320                	ld	s0,96(a4)
    400009f4:	6174                	ld	a3,192(a0)
    400009f6:	7472                	ld	s0,312(sp)
    400009f8:	0a21                	addi	s4,s4,8
    400009fa:	0000                	unimp
    400009fc:	0000                	unimp
    400009fe:	0000                	unimp
    40000a00:	6f62                	ld	t5,24(sp)
    40000a02:	6520746f          	jal	s0,40008054 <_end+0x761c>
    40000a06:	6378                	ld	a4,192(a4)
    40000a08:	7065                	c.lui	zero,0xffff9
    40000a0a:	6974                	ld	a3,208(a0)
    40000a0c:	203a6e6f          	jal	t3,400a740e <_end+0xa69d6>
    40000a10:	73756163          	bltu	a0,s7,40001132 <_end+0x6fa>
    40000a14:	2065                	0x2065
    40000a16:	203d                	0x203d
    40000a18:	0000                	unimp
    40000a1a:	0000                	unimp
    40000a1c:	0000                	unimp
    40000a1e:	0000                	unimp
    40000a20:	6f62                	ld	t5,24(sp)
    40000a22:	6520746f          	jal	s0,40008074 <_end+0x763c>
    40000a26:	6378                	ld	a4,192(a4)
    40000a28:	7065                	c.lui	zero,0xffff9
    40000a2a:	6974                	ld	a3,208(a0)
    40000a2c:	203a6e6f          	jal	t3,400a742e <_end+0xa69f6>
    40000a30:	7065                	c.lui	zero,0xffff9
    40000a32:	203d2063          	0x203d2063
    40000a36:	00              	Address 0x0000000040000a36 is out of bounds.


Disassembly of section .tbss:

0000000040000a38 <_tbss_end+0x400009d4>:
    40000a38:	0000                	unimp
    40000a3a:	0000                	unimp
    40000a3c:	0000                	unimp
    40000a3e:	0000                	unimp
    40000a40:	0000                	unimp
    40000a42:	0000                	unimp
    40000a44:	0000                	unimp
    40000a46:	0000                	unimp
    40000a48:	0000                	unimp
    40000a4a:	0000                	unimp
    40000a4c:	0000                	unimp
    40000a4e:	0000                	unimp
    40000a50:	0000                	unimp
    40000a52:	0000                	unimp
    40000a54:	0000                	unimp
    40000a56:	0000                	unimp
    40000a58:	0000                	unimp
    40000a5a:	0000                	unimp
    40000a5c:	0000                	unimp
    40000a5e:	0000                	unimp
    40000a60:	0000                	unimp
    40000a62:	0000                	unimp
    40000a64:	0000                	unimp
    40000a66:	0000                	unimp
    40000a68:	0000                	unimp
    40000a6a:	0000                	unimp
    40000a6c:	0000                	unimp
    40000a6e:	0000                	unimp
    40000a70:	0000                	unimp
    40000a72:	0000                	unimp
    40000a74:	0000                	unimp
    40000a76:	0000                	unimp
    40000a78:	0000                	unimp
    40000a7a:	0000                	unimp
    40000a7c:	0000                	unimp
    40000a7e:	0000                	unimp
    40000a80:	0000                	unimp
    40000a82:	0000                	unimp
    40000a84:	0000                	unimp
    40000a86:	0000                	unimp
    40000a88:	0000                	unimp
    40000a8a:	0000                	unimp
    40000a8c:	0000                	unimp
    40000a8e:	0000                	unimp
    40000a90:	0000                	unimp
    40000a92:	0000                	unimp
    40000a94:	0000                	unimp
    40000a96:	0000                	unimp
    40000a98:	0000                	unimp
    40000a9a:	0000                	unimp

Disassembly of section .debug_info:

0000000000000000 <.debug_info>:
       0:	00001493          	slli	s1,zero,0x0
       4:	0004                	0x4
       6:	0000                	unimp
       8:	0000                	unimp
       a:	0108                	addi	a0,sp,128
       c:	017f                	0x17f
       e:	0000                	unimp
      10:	f20c                	sd	a1,32(a2)
      12:	0d000003          	lb	zero,208(zero) # d0 <_tbss_end+0x6c>
      16:	0004                	0x4
      18:	7c00                	ld	s0,56(s0)
      1a:	0002                	c.slli64	zero
      1c:	0040                	addi	s0,sp,4
      1e:	0000                	unimp
      20:	6800                	ld	s0,16(s0)
      22:	0006                	c.slli	zero,0x1
      24:	0000                	unimp
      26:	0000                	unimp
      28:	0000                	unimp
      2a:	0000                	unimp
      2c:	0200                	addi	s0,sp,256
      2e:	0601                	addi	a2,a2,0
      30:	0744                	addi	s1,sp,900
      32:	0000                	unimp
      34:	0006bd03          	ld	s10,0(a3)
      38:	0200                	addi	s0,sp,256
      3a:	00003f2b          	0x3f2b
      3e:	0200                	addi	s0,sp,256
      40:	0801                	addi	a6,a6,0
      42:	0742                	slli	a4,a4,0x10
      44:	0000                	unimp
      46:	0202                	c.slli64	tp
      48:	2205                	addiw	tp,tp,1
      4a:	0006                	c.slli	zero,0x1
      4c:	0200                	addi	s0,sp,256
      4e:	0702                	c.slli64	a4
      50:	07f6                	slli	a5,a5,0x1d
      52:	0000                	unimp
      54:	0404                	addi	s1,sp,512
      56:	6905                	lui	s2,0x1
      58:	746e                	ld	s0,248(sp)
      5a:	0300                	addi	s0,sp,384
      5c:	0750                	addi	a2,sp,900
      5e:	0000                	unimp
      60:	4f02                	lw	t5,0(sp)
      62:	0066                	c.slli	zero,0x19
      64:	0000                	unimp
      66:	0402                	c.slli64	s0
      68:	00027407          	0x27407
      6c:	0200                	addi	s0,sp,256
      6e:	0508                	addi	a0,sp,640
      70:	04cc                	addi	a1,sp,580
      72:	0000                	unimp
      74:	0802                	c.slli64	a6
      76:	00026f07          	0x26f07
      7a:	0300                	addi	s0,sp,384
      7c:	05fc                	addi	a5,sp,716
      7e:	0000                	unimp
      80:	e802                	sd	zero,16(sp)
      82:	0074                	addi	a3,sp,12
      84:	0000                	unimp
      86:	0007e803          	lwu	a6,0(a5)
      8a:	0300                	addi	s0,sp,384
      8c:	74d8                	ld	a4,168(s1)
      8e:	0000                	unimp
      90:	0300                	addi	s0,sp,384
      92:	00cd                	addi	ra,ra,19
      94:	0000                	unimp
      96:	0704                	addi	s1,sp,896
      98:	0054                	addi	a3,sp,4
      9a:	0000                	unimp
      9c:	00081e03          	lh	t3,0(a6)
      a0:	0500                	addi	s0,sp,640
      a2:	6d2c                	ld	a1,88(a0)
      a4:	0000                	unimp
      a6:	0200                	addi	s0,sp,256
      a8:	0508                	addi	a0,sp,640
      aa:	000004c7          	fmsub.s	fs1,ft0,ft0,ft0,rne
      ae:	00011b03          	lh	s6,0(sp)
      b2:	0500                	addi	s0,sp,640
      b4:	6d72                	ld	s10,280(sp)
      b6:	0000                	unimp
      b8:	0300                	addi	s0,sp,384
      ba:	07e6                	slli	a5,a5,0x19
      bc:	0000                	unimp
      be:	9105                	srli	a0,a0,0x21
      c0:	006d                	c.nop	27
      c2:	0000                	unimp
      c4:	0f05                	addi	t5,t5,1
      c6:	03000007          	0x3000007
      ca:	0165                	addi	sp,sp,25
      cc:	0066                	c.slli	zero,0x19
      ce:	0000                	unimp
      d0:	0406                	slli	s0,s0,0x1
      d2:	a605                	j	3f2 <_tbss_end+0x38e>
      d4:	000000ef          	jal	ra,d4 <_tbss_end+0x70>
      d8:	00046e07          	0x46e07
      dc:	0500                	addi	s0,sp,640
      de:	c4a8                	sw	a0,72(s1)
      e0:	0000                	unimp
      e2:	0700                	addi	s0,sp,896
      e4:	00000667          	jalr	a2,zero # 0 <_tdata_begin>
      e8:	a905                	j	518 <_tbss_end+0x4b4>
      ea:	000000ef          	jal	ra,ea <_tbss_end+0x86>
      ee:	0800                	addi	s0,sp,16
      f0:	0000003f 000000ff 	0xff0000003f
      f8:	7409                	lui	s0,0xfffe2
      fa:	0000                	unimp
      fc:	0300                	addi	s0,sp,384
      fe:	0a00                	addi	s0,sp,272
     100:	0508                	addi	a0,sp,640
     102:	000120a3          	sw	zero,1(sp)
     106:	0b00                	addi	s0,sp,400
     108:	0000021b          	sext.w	tp,zero
     10c:	a505                	j	72c <_tbss_end+0x6c8>
     10e:	0054                	addi	a3,sp,4
     110:	0000                	unimp
     112:	0b00                	addi	s0,sp,400
     114:	0391                	addi	t2,t2,4
     116:	0000                	unimp
     118:	aa05                	j	248 <_tbss_end+0x1e4>
     11a:	00d0                	addi	a2,sp,68
     11c:	0000                	unimp
     11e:	0004                	0x4
     120:	00054f03          	lbu	t5,0(a0)
     124:	0500                	addi	s0,sp,640
     126:	0000ffab          	0xffab
     12a:	0300                	addi	s0,sp,384
     12c:	0404                	addi	s1,sp,512
     12e:	0000                	unimp
     130:	af05                	j	860 <_tbss_end+0x7fc>
     132:	0091                	addi	ra,ra,4
     134:	0000                	unimp
     136:	080c                	addi	a1,sp,16
     138:	0004f303          	0x4f303
     13c:	0600                	addi	s0,sp,768
     13e:	6619                	lui	a2,0x6
     140:	0000                	unimp
     142:	0d00                	addi	s0,sp,656
     144:	013c                	addi	a5,sp,136
     146:	0000                	unimp
     148:	0620                	addi	s0,sp,776
     14a:	0001962f          	0x1962f
     14e:	0b00                	addi	s0,sp,400
     150:	00000883          	lb	a7,0(zero) # 0 <_tdata_begin>
     154:	3106                	fld	ft2,96(sp)
     156:	0196                	slli	gp,gp,0x5
     158:	0000                	unimp
     15a:	0e00                	addi	s0,sp,784
     15c:	6b5f 0600 5432      	0x543206006b5f
     162:	0000                	unimp
     164:	0800                	addi	s0,sp,16
     166:	0006d40b          	0x6d40b
     16a:	0600                	addi	s0,sp,768
     16c:	5432                	lw	s0,44(sp)
     16e:	0000                	unimp
     170:	0c00                	addi	s0,sp,528
     172:	0006550b          	0x6550b
     176:	0600                	addi	s0,sp,768
     178:	5432                	lw	s0,44(sp)
     17a:	0000                	unimp
     17c:	1000                	addi	s0,sp,32
     17e:	0002a60b          	0x2a60b
     182:	0600                	addi	s0,sp,768
     184:	5432                	lw	s0,44(sp)
     186:	0000                	unimp
     188:	1400                	addi	s0,sp,544
     18a:	5f0e                	lw	t5,224(sp)
     18c:	0078                	addi	a4,sp,12
     18e:	3306                	fld	ft6,96(sp)
     190:	019c                	addi	a5,sp,192
     192:	0000                	unimp
     194:	0018                	0x18
     196:	0143080f          	0x143080f
     19a:	0000                	unimp
     19c:	3808                	fld	fa0,48(s0)
     19e:	0001                	nop
     1a0:	ac00                	fsd	fs0,24(s0)
     1a2:	0001                	nop
     1a4:	0900                	addi	s0,sp,144
     1a6:	0074                	addi	a3,sp,12
     1a8:	0000                	unimp
     1aa:	0000                	unimp
     1ac:	f40d                	bnez	s0,d6 <_tbss_end+0x72>
     1ae:	0006                	c.slli	zero,0x1
     1b0:	2400                	fld	fs0,8(s0)
     1b2:	3706                	fld	fa4,96(sp)
     1b4:	0225                	addi	tp,tp,9
     1b6:	0000                	unimp
     1b8:	0003370b          	0x3370b
     1bc:	0600                	addi	s0,sp,768
     1be:	5439                	li	s0,-18
     1c0:	0000                	unimp
     1c2:	0000                	unimp
     1c4:	0002350b          	0x2350b
     1c8:	0600                	addi	s0,sp,768
     1ca:	543a                	lw	s0,172(sp)
     1cc:	0000                	unimp
     1ce:	0400                	addi	s0,sp,512
     1d0:	0001750b          	0x1750b
     1d4:	0600                	addi	s0,sp,768
     1d6:	0000543b          	srlw	s0,zero,zero
     1da:	0800                	addi	s0,sp,16
     1dc:	0003c60b          	0x3c60b
     1e0:	0600                	addi	s0,sp,768
     1e2:	543c                	lw	a5,104(s0)
     1e4:	0000                	unimp
     1e6:	0c00                	addi	s0,sp,528
     1e8:	0005c30b          	0x5c30b
     1ec:	0600                	addi	s0,sp,768
     1ee:	543d                	li	s0,-17
     1f0:	0000                	unimp
     1f2:	1000                	addi	s0,sp,32
     1f4:	0006810b          	0x6810b
     1f8:	0600                	addi	s0,sp,768
     1fa:	543e                	lw	s0,236(sp)
     1fc:	0000                	unimp
     1fe:	1400                	addi	s0,sp,544
     200:	0001570b          	0x1570b
     204:	0600                	addi	s0,sp,768
     206:	0000543f 4a0b1800 	0x4a0b18000000543f
     20e:	06000003          	lb	zero,96(zero) # 60 <_tdata_begin+0x60>
     212:	5440                	lw	s0,44(s0)
     214:	0000                	unimp
     216:	1c00                	addi	s0,sp,560
     218:	0005880b          	0x5880b
     21c:	0600                	addi	s0,sp,768
     21e:	5441                	li	s0,-16
     220:	0000                	unimp
     222:	2000                	fld	fs0,0(s0)
     224:	1000                	addi	s0,sp,32
     226:	00000047          	fmsub.s	ft0,ft0,ft0,ft0,rne
     22a:	0208                	addi	a0,sp,256
     22c:	4a06                	lw	s4,64(sp)
     22e:	0266                	slli	tp,tp,0x19
     230:	0000                	unimp
     232:	0005800b          	0x5800b
     236:	0600                	addi	s0,sp,768
     238:	0002664b          	fnmsub.s	fa2,ft4,ft0,ft0,unknown
     23c:	0000                	unimp
     23e:	2e11                	addiw	t3,t3,4
     240:	06000007          	0x6000007
     244:	664c                	ld	a1,136(a2)
     246:	0002                	c.slli64	zero
     248:	0000                	unimp
     24a:	1101                	addi	sp,sp,-32
     24c:	0000080f          	0x80f
     250:	4e06                	lw	t3,64(sp)
     252:	0138                	addi	a4,sp,136
     254:	0000                	unimp
     256:	0200                	addi	s0,sp,256
     258:	7011                	c.lui	zero,0xfffe4
     25a:	0008                	0x8
     25c:	0600                	addi	s0,sp,768
     25e:	3851                	addiw	a6,a6,-12
     260:	0001                	nop
     262:	0400                	addi	s0,sp,512
     264:	0002                	c.slli64	zero
     266:	3608                	fld	fa0,40(a2)
     268:	0001                	nop
     26a:	7600                	ld	s0,40(a2)
     26c:	0002                	c.slli64	zero
     26e:	0900                	addi	s0,sp,144
     270:	0074                	addi	a3,sp,12
     272:	0000                	unimp
     274:	001f 0810 0006      	0x60810001f
     27a:	1800                	addi	s0,sp,48
     27c:	b55d0603          	lb	a2,-1195(s10)
     280:	0002                	c.slli64	zero
     282:	0b00                	addi	s0,sp,400
     284:	00000883          	lb	a7,0(zero) # 0 <_tdata_begin>
     288:	5e06                	lw	t3,96(sp)
     28a:	02b5                	addi	t0,t0,13
     28c:	0000                	unimp
     28e:	0b00                	addi	s0,sp,400
     290:	0359                	addi	t1,t1,22
     292:	0000                	unimp
     294:	5f06                	lw	t5,96(sp)
     296:	0054                	addi	a3,sp,4
     298:	0000                	unimp
     29a:	0b08                	addi	a0,sp,400
     29c:	0000012f          	0x12f
     2a0:	6106                	ld	sp,64(sp)
     2a2:	000002bb          	addw	t0,zero,zero
     2a6:	1110                	addi	a2,sp,160
     2a8:	00000047          	fmsub.s	ft0,ft0,ft0,ft0,rne
     2ac:	6206                	ld	tp,64(sp)
     2ae:	0225                	addi	tp,tp,9
     2b0:	0000                	unimp
     2b2:	0110                	addi	a2,sp,128
     2b4:	0f00                	addi	s0,sp,912
     2b6:	7608                	ld	a0,40(a2)
     2b8:	0002                	c.slli64	zero
     2ba:	0800                	addi	s0,sp,16
     2bc:	000002cb          	fnmsub.s	ft5,ft0,ft0,ft0,rne
     2c0:	000002cb          	fnmsub.s	ft5,ft0,ft0,ft0,rne
     2c4:	7409                	lui	s0,0xfffe2
     2c6:	0000                	unimp
     2c8:	1f00                	addi	s0,sp,944
     2ca:	0f00                	addi	s0,sp,912
     2cc:	d108                	sw	a0,32(a0)
     2ce:	0002                	c.slli64	zero
     2d0:	1200                	addi	s0,sp,288
     2d2:	8c0d                	sub	s0,s0,a1
     2d4:	10000007          	0x10000007
     2d8:	7506                	ld	a0,96(sp)
     2da:	000002f7          	0x2f7
     2de:	0000410b          	0x410b
     2e2:	0600                	addi	s0,sp,768
     2e4:	f776                	sd	t4,424(sp)
     2e6:	0002                	c.slli64	zero
     2e8:	0000                	unimp
     2ea:	0008180b          	0x8180b
     2ee:	0600                	addi	s0,sp,768
     2f0:	00005477          	0x5477
     2f4:	0800                	addi	s0,sp,16
     2f6:	0f00                	addi	s0,sp,912
     2f8:	3f08                	fld	fa0,56(a4)
     2fa:	0000                	unimp
     2fc:	0d00                	addi	s0,sp,656
     2fe:	029e                	slli	t0,t0,0x7
     300:	0000                	unimp
     302:	06b0                	addi	a2,sp,840
     304:	27b5                	addiw	a5,a5,13
     306:	0004                	0x4
     308:	0e00                	addi	s0,sp,784
     30a:	705f 0600 f7b6      	0xf7b60600705f
     310:	0002                	c.slli64	zero
     312:	0000                	unimp
     314:	5f0e                	lw	t5,224(sp)
     316:	0072                	c.slli	zero,0x1c
     318:	b706                	fsd	ft1,424(sp)
     31a:	0054                	addi	a3,sp,4
     31c:	0000                	unimp
     31e:	0e08                	addi	a0,sp,784
     320:	775f 0600 54b8      	0x54b80600775f
     326:	0000                	unimp
     328:	0c00                	addi	s0,sp,528
     32a:	0000a30b          	0xa30b
     32e:	0600                	addi	s0,sp,768
     330:	46b9                	li	a3,14
     332:	0000                	unimp
     334:	1000                	addi	s0,sp,32
     336:	00051e0b          	0x51e0b
     33a:	0600                	addi	s0,sp,768
     33c:	46ba                	lw	a3,140(sp)
     33e:	0000                	unimp
     340:	1200                	addi	s0,sp,288
     342:	5f0e                	lw	t5,224(sp)
     344:	6662                	ld	a2,24(sp)
     346:	0600                	addi	s0,sp,768
     348:	0002d2bb          	srlw	t0,t0,zero
     34c:	1800                	addi	s0,sp,48
     34e:	00009a0b          	0x9a0b
     352:	0600                	addi	s0,sp,768
     354:	54bc                	lw	a5,104(s1)
     356:	0000                	unimp
     358:	2800                	fld	fs0,16(s0)
     35a:	0001340b          	0x1340b
     35e:	0600                	addi	s0,sp,768
     360:	000136c3          	fmadd.s	fa3,ft2,ft0,ft0,rup
     364:	3000                	fld	fs0,32(s0)
     366:	0000ed0b          	0xed0b
     36a:	0600                	addi	s0,sp,768
     36c:	94c5                	srai	s1,s1,0x31
     36e:	0005                	c.nop	1
     370:	3800                	fld	fs0,48(s0)
     372:	0005e00b          	0x5e00b
     376:	0600                	addi	s0,sp,768
     378:	0005bec7          	fmsub.s	ft9,fa1,ft0,ft0,rup
     37c:	4000                	lw	s0,0(s0)
     37e:	0008940b          	0x8940b
     382:	0600                	addi	s0,sp,768
     384:	e2ca                	sd	s2,320(sp)
     386:	0005                	c.nop	1
     388:	4800                	lw	s0,16(s0)
     38a:	00047a0b          	0x47a0b
     38e:	0600                	addi	s0,sp,768
     390:	0005fccb          	fnmsub.s	fs9,fa1,ft0,ft0
     394:	5000                	lw	s0,32(s0)
     396:	5f0e                	lw	t5,224(sp)
     398:	6275                	lui	tp,0x1d
     39a:	0600                	addi	s0,sp,768
     39c:	d2ce                	sw	s3,100(sp)
     39e:	0002                	c.slli64	zero
     3a0:	5800                	lw	s0,48(s0)
     3a2:	5f0e                	lw	t5,224(sp)
     3a4:	7075                	c.lui	zero,0xffffd
     3a6:	0600                	addi	s0,sp,768
     3a8:	0002f7cf          	fnmadd.s	fa5,ft5,ft0,ft0
     3ac:	6800                	ld	s0,16(s0)
     3ae:	5f0e                	lw	t5,224(sp)
     3b0:	7275                	lui	tp,0xffffd
     3b2:	0600                	addi	s0,sp,768
     3b4:	54d0                	lw	a2,44(s1)
     3b6:	0000                	unimp
     3b8:	7000                	ld	s0,32(s0)
     3ba:	0008ab0b          	0x8ab0b
     3be:	0600                	addi	s0,sp,768
     3c0:	000602d3          	fadd.s	ft5,fa2,ft0,rne
     3c4:	7400                	ld	s0,40(s0)
     3c6:	0008250b          	0x8250b
     3ca:	0600                	addi	s0,sp,768
     3cc:	12d4                	addi	a3,sp,356
     3ce:	0006                	c.slli	zero,0x1
     3d0:	7700                	ld	s0,40(a4)
     3d2:	5f0e                	lw	t5,224(sp)
     3d4:	626c                	ld	a1,192(a2)
     3d6:	0600                	addi	s0,sp,768
     3d8:	0002d2d7          	0x2d2d7
     3dc:	7800                	ld	s0,48(s0)
     3de:	0006eb0b          	0x6eb0b
     3e2:	0600                	addi	s0,sp,768
     3e4:	54da                	lw	s1,180(sp)
     3e6:	0000                	unimp
     3e8:	8800                	0x8800
     3ea:	0002960b          	0x2960b
     3ee:	0600                	addi	s0,sp,768
     3f0:	00009cdb          	0x9cdb
     3f4:	9000                	0x9000
     3f6:	0002c90b          	0x2c90b
     3fa:	0600                	addi	s0,sp,768
     3fc:	45de                	lw	a1,212(sp)
     3fe:	0004                	0x4
     400:	9800                	0x9800
     402:	0006f90b          	0x6f90b
     406:	0600                	addi	s0,sp,768
     408:	2be2                	fld	fs7,24(sp)
     40a:	0001                	nop
     40c:	a000                	fsd	fs0,0(s0)
     40e:	0006100b          	0x6100b
     412:	0600                	addi	s0,sp,768
     414:	20e4                	fld	fs1,192(s1)
     416:	0001                	nop
     418:	a400                	fsd	fs0,8(s0)
     41a:	0008680b          	0x8680b
     41e:	0600                	addi	s0,sp,768
     420:	54e5                	li	s1,-7
     422:	0000                	unimp
     424:	ac00                	fsd	fs0,24(s0)
     426:	1300                	addi	s0,sp,416
     428:	00b9                	addi	ra,ra,14
     42a:	0000                	unimp
     42c:	0445                	addi	s0,s0,17
     42e:	0000                	unimp
     430:	4514                	lw	a3,8(a0)
     432:	0004                	0x4
     434:	1400                	addi	s0,sp,544
     436:	0136                	slli	sp,sp,0xd
     438:	0000                	unimp
     43a:	8214                	0x8214
     43c:	0005                	c.nop	1
     43e:	1400                	addi	s0,sp,544
     440:	0054                	addi	a3,sp,4
     442:	0000                	unimp
     444:	0f00                	addi	s0,sp,912
     446:	5008                	lw	a0,32(s0)
     448:	0004                	0x4
     44a:	1500                	addi	s0,sp,672
     44c:	0445                	addi	s0,s0,17
     44e:	0000                	unimp
     450:	ef16                	sd	t0,408(sp)
     452:	48000007          	0x48000007
     456:	02390607          	0x2390607
     45a:	0582                	c.slli64	a1
     45c:	0000                	unimp
     45e:	00059517          	auipc	a0,0x59
     462:	0600                	addi	s0,sp,768
     464:	0054023b          	addw	tp,s0,t0
     468:	0000                	unimp
     46a:	1700                	addi	s0,sp,928
     46c:	04b1                	addi	s1,s1,12
     46e:	0000                	unimp
     470:	4006                	0x4006
     472:	6902                	ld	s2,0(sp)
     474:	0006                	c.slli	zero,0x1
     476:	0800                	addi	s0,sp,16
     478:	00011317          	auipc	t1,0x11
     47c:	0600                	addi	s0,sp,768
     47e:	0240                	addi	s0,sp,260
     480:	0669                	addi	a2,a2,26
     482:	0000                	unimp
     484:	1710                	addi	a2,sp,928
     486:	089a                	slli	a7,a7,0x6
     488:	0000                	unimp
     48a:	4006                	0x4006
     48c:	6902                	ld	s2,0(sp)
     48e:	0006                	c.slli	zero,0x1
     490:	1800                	addi	s0,sp,48
     492:	00035417          	auipc	s0,0x35
     496:	0600                	addi	s0,sp,768
     498:	0242                	slli	tp,tp,0x10
     49a:	0054                	addi	a3,sp,4
     49c:	0000                	unimp
     49e:	1720                	addi	s0,sp,936
     4a0:	030c                	addi	a1,sp,384
     4a2:	0000                	unimp
     4a4:	4306                	lw	t1,64(sp)
     4a6:	5402                	lw	s0,32(sp)
     4a8:	0008                	0x8
     4aa:	2400                	fld	fs0,8(s0)
     4ac:	00084f17          	auipc	t5,0x84
     4b0:	0600                	addi	s0,sp,768
     4b2:	0246                	slli	tp,tp,0x11
     4b4:	0054                	addi	a3,sp,4
     4b6:	0000                	unimp
     4b8:	1740                	addi	s0,sp,932
     4ba:	07d6                	slli	a5,a5,0x15
     4bc:	0000                	unimp
     4be:	4706                	lw	a4,64(sp)
     4c0:	6902                	ld	s2,0(sp)
     4c2:	0008                	0x8
     4c4:	4800                	lw	s0,16(s0)
     4c6:	00048117          	auipc	sp,0x48
     4ca:	0600                	addi	s0,sp,768
     4cc:	0249                	addi	tp,tp,18
     4ce:	0054                	addi	a3,sp,4
     4d0:	0000                	unimp
     4d2:	1750                	addi	a2,sp,932
     4d4:	0535                	addi	a0,a0,13
     4d6:	0000                	unimp
     4d8:	4b06                	lw	s6,64(sp)
     4da:	7a02                	ld	s4,32(sp)
     4dc:	0008                	0x8
     4de:	5800                	lw	s0,48(s0)
     4e0:	00016117          	auipc	sp,0x16
     4e4:	0600                	addi	s0,sp,768
     4e6:	024e                	slli	tp,tp,0x13
     4e8:	0196                	slli	gp,gp,0x5
     4ea:	0000                	unimp
     4ec:	1760                	addi	s0,sp,940
     4ee:	0260                	addi	s0,sp,268
     4f0:	0000                	unimp
     4f2:	4f06                	lw	t5,64(sp)
     4f4:	5402                	lw	s0,32(sp)
     4f6:	0000                	unimp
     4f8:	6800                	ld	s0,16(s0)
     4fa:	00039917          	auipc	s2,0x39
     4fe:	0600                	addi	s0,sp,768
     500:	0250                	addi	a2,sp,260
     502:	0196                	slli	gp,gp,0x5
     504:	0000                	unimp
     506:	1770                	addi	a2,sp,940
     508:	000004e3          	beqz	zero,d10 <_tbss_end+0xcac>
     50c:	5106                	lw	sp,96(sp)
     50e:	8002                	0x8002
     510:	0008                	0x8
     512:	7800                	ld	s0,48(s0)
     514:	0006cc17          	auipc	s8,0x6c
     518:	0600                	addi	s0,sp,768
     51a:	0254                	addi	a3,sp,260
     51c:	0054                	addi	a3,sp,4
     51e:	0000                	unimp
     520:	1780                	addi	s0,sp,992
     522:	073a                	slli	a4,a4,0xe
     524:	0000                	unimp
     526:	5506                	lw	a0,96(sp)
     528:	8202                	jr	tp
     52a:	0005                	c.nop	1
     52c:	8800                	0x8800
     52e:	0006c717          	auipc	a4,0x6c
     532:	0600                	addi	s0,sp,768
     534:	0278                	addi	a4,sp,268
     536:	0831                	addi	a6,a6,12
     538:	0000                	unimp
     53a:	1890                	addi	a2,sp,112
     53c:	0608                	addi	a0,sp,768
     53e:	0000                	unimp
     540:	7c06                	ld	s8,96(sp)
     542:	b502                	fsd	ft0,168(sp)
     544:	0002                	c.slli64	zero
     546:	f800                	sd	s0,48(s0)
     548:	1801                	addi	a6,a6,-32
     54a:	03e9                	addi	t2,t2,26
     54c:	0000                	unimp
     54e:	7d06                	ld	s10,96(sp)
     550:	7602                	ld	a2,32(sp)
     552:	0002                	c.slli64	zero
     554:	0000                	unimp
     556:	1802                	slli	a6,a6,0x20
     558:	03d0                	addi	a2,sp,452
     55a:	0000                	unimp
     55c:	8106                	mv	sp,ra
     55e:	9102                	jalr	sp
     560:	0008                	0x8
     562:	1800                	addi	s0,sp,48
     564:	1805                	addi	a6,a6,-31
     566:	000007b3          	add	a5,zero,zero
     56a:	8606                	mv	a2,ra
     56c:	2e02                	fld	ft8,0(sp)
     56e:	0006                	c.slli	zero,0x1
     570:	2000                	fld	fs0,0(s0)
     572:	1805                	addi	a6,a6,-31
     574:	0650                	addi	a2,sp,772
     576:	0000                	unimp
     578:	8706                	mv	a4,ra
     57a:	9d02                	jalr	s10
     57c:	0008                	0x8
     57e:	3800                	fld	fs0,48(s0)
     580:	0005                	c.nop	1
     582:	0588080f          	0x588080f
     586:	0000                	unimp
     588:	0102                	c.slli64	sp
     58a:	4b08                	lw	a0,16(a4)
     58c:	15000007          	0x15000007
     590:	0588                	addi	a0,sp,704
     592:	0000                	unimp
     594:	0427080f          	0x427080f
     598:	0000                	unimp
     59a:	0000b913          	sltiu	s2,ra,0
     59e:	b800                	fsd	fs0,48(s0)
     5a0:	0005                	c.nop	1
     5a2:	1400                	addi	s0,sp,544
     5a4:	0445                	addi	s0,s0,17
     5a6:	0000                	unimp
     5a8:	3614                	fld	fa3,40(a2)
     5aa:	0001                	nop
     5ac:	1400                	addi	s0,sp,544
     5ae:	05b8                	addi	a4,sp,712
     5b0:	0000                	unimp
     5b2:	5414                	lw	a3,40(s0)
     5b4:	0000                	unimp
     5b6:	0000                	unimp
     5b8:	058f080f          	0x58f080f
     5bc:	0000                	unimp
     5be:	059a080f          	0x59a080f
     5c2:	0000                	unimp
     5c4:	0000ae13          	slti	t3,ra,0
     5c8:	e200                	sd	s0,0(a2)
     5ca:	0005                	c.nop	1
     5cc:	1400                	addi	s0,sp,544
     5ce:	0445                	addi	s0,s0,17
     5d0:	0000                	unimp
     5d2:	3614                	fld	fa3,40(a2)
     5d4:	0001                	nop
     5d6:	1400                	addi	s0,sp,544
     5d8:	00ae                	slli	ra,ra,0xb
     5da:	0000                	unimp
     5dc:	5414                	lw	a3,40(s0)
     5de:	0000                	unimp
     5e0:	0000                	unimp
     5e2:	05c4080f          	0x5c4080f
     5e6:	0000                	unimp
     5e8:	00005413          	srli	s0,zero,0x0
     5ec:	fc00                	sd	s0,56(s0)
     5ee:	0005                	c.nop	1
     5f0:	1400                	addi	s0,sp,544
     5f2:	0445                	addi	s0,s0,17
     5f4:	0000                	unimp
     5f6:	3614                	fld	fa3,40(a2)
     5f8:	0001                	nop
     5fa:	0000                	unimp
     5fc:	05e8080f          	0x5e8080f
     600:	0000                	unimp
     602:	3f08                	fld	fa0,56(a4)
     604:	0000                	unimp
     606:	1200                	addi	s0,sp,288
     608:	0006                	c.slli	zero,0x1
     60a:	0900                	addi	s0,sp,144
     60c:	0074                	addi	a3,sp,12
     60e:	0000                	unimp
     610:	0002                	c.slli64	zero
     612:	3f08                	fld	fa0,56(a4)
     614:	0000                	unimp
     616:	2200                	fld	fs0,0(a2)
     618:	0006                	c.slli	zero,0x1
     61a:	0900                	addi	s0,sp,144
     61c:	0074                	addi	a3,sp,12
     61e:	0000                	unimp
     620:	0000                	unimp
     622:	d705                	beqz	a4,54a <_tbss_end+0x4e6>
     624:	0002                	c.slli64	zero
     626:	0600                	addi	s0,sp,768
     628:	011f 02fd 0000      	0x2fd011f
     62e:	9c19                	subw	s0,s0,a4
     630:	18000007          	0x18000007
     634:	2306                	fld	ft6,64(sp)
     636:	6301                	0x6301
     638:	0006                	c.slli	zero,0x1
     63a:	1700                	addi	s0,sp,928
     63c:	00000883          	lb	a7,0(zero) # 0 <_tdata_begin>
     640:	2506                	fld	fa0,64(sp)
     642:	6301                	0x6301
     644:	0006                	c.slli	zero,0x1
     646:	0000                	unimp
     648:	00070817          	auipc	a6,0x70
     64c:	0600                	addi	s0,sp,768
     64e:	0126                	slli	sp,sp,0x9
     650:	0054                	addi	a3,sp,4
     652:	0000                	unimp
     654:	1708                	addi	a0,sp,928
     656:	0474                	addi	a3,sp,524
     658:	0000                	unimp
     65a:	2706                	fld	fa4,64(sp)
     65c:	6901                	0x6901
     65e:	0006                	c.slli	zero,0x1
     660:	1000                	addi	s0,sp,32
     662:	0f00                	addi	s0,sp,912
     664:	2e08                	fld	fa0,24(a2)
     666:	0006                	c.slli	zero,0x1
     668:	0f00                	addi	s0,sp,912
     66a:	2208                	fld	fa0,0(a2)
     66c:	0006                	c.slli	zero,0x1
     66e:	1900                	addi	s0,sp,176
     670:	0245                	addi	tp,tp,17
     672:	0000                	unimp
     674:	060e                	slli	a2,a2,0x3
     676:	06a4013f 78170000 	0x7817000006a4013f
     67e:	0008                	0x8
     680:	0600                	addi	s0,sp,768
     682:	0140                	addi	s0,sp,132
     684:	06a4                	addi	s1,sp,840
     686:	0000                	unimp
     688:	1700                	addi	s0,sp,928
     68a:	04ed                	addi	s1,s1,27
     68c:	0000                	unimp
     68e:	4106                	lw	sp,64(sp)
     690:	a401                	j	890 <_tbss_end+0x82c>
     692:	0006                	c.slli	zero,0x1
     694:	0600                	addi	s0,sp,768
     696:	00077617          	auipc	a2,0x77
     69a:	0600                	addi	s0,sp,768
     69c:	0142                	slli	sp,sp,0x10
     69e:	004d                	c.nop	19
     6a0:	0000                	unimp
     6a2:	000c                	0xc
     6a4:	4d08                	lw	a0,24(a0)
     6a6:	0000                	unimp
     6a8:	b400                	fsd	fs0,40(s0)
     6aa:	0006                	c.slli	zero,0x1
     6ac:	0900                	addi	s0,sp,144
     6ae:	0074                	addi	a3,sp,12
     6b0:	0000                	unimp
     6b2:	0002                	c.slli64	zero
     6b4:	d81a                	sw	t1,48(sp)
     6b6:	5906                	lw	s2,96(sp)
     6b8:	b502                	fsd	ft0,168(sp)
     6ba:	17000007          	0x17000007
     6be:	0000082b          	0x82b
     6c2:	5b06                	lw	s6,96(sp)
     6c4:	6602                	ld	a2,0(sp)
     6c6:	0000                	unimp
     6c8:	0000                	unimp
     6ca:	0007bb17          	auipc	s6,0x7b
     6ce:	0600                	addi	s0,sp,768
     6d0:	025c                	addi	a5,sp,260
     6d2:	0582                	c.slli64	a1
     6d4:	0000                	unimp
     6d6:	1708                	addi	a0,sp,928
     6d8:	0286                	slli	t0,t0,0x1
     6da:	0000                	unimp
     6dc:	5d06                	lw	s10,96(sp)
     6de:	b502                	fsd	ft0,168(sp)
     6e0:	10000007          	0x10000007
     6e4:	0006a617          	auipc	a2,0x6a
     6e8:	0600                	addi	s0,sp,768
     6ea:	025e                	slli	tp,tp,0x17
     6ec:	01ac                	addi	a1,sp,200
     6ee:	0000                	unimp
     6f0:	172c                	addi	a1,sp,936
     6f2:	04b8                	addi	a4,sp,584
     6f4:	0000                	unimp
     6f6:	5f06                	lw	t5,96(sp)
     6f8:	5402                	lw	s0,32(sp)
     6fa:	0000                	unimp
     6fc:	5000                	lw	s0,32(s0)
     6fe:	00087e17          	auipc	t3,0x87
     702:	0600                	addi	s0,sp,768
     704:	0260                	addi	s0,sp,268
     706:	07c5                	addi	a5,a5,17
     708:	0000                	unimp
     70a:	1758                	addi	a4,sp,932
     70c:	007e                	c.slli	zero,0x1f
     70e:	0000                	unimp
     710:	6106                	ld	sp,64(sp)
     712:	6f02                	ld	t5,0(sp)
     714:	0006                	c.slli	zero,0x1
     716:	6000                	ld	s0,0(s0)
     718:	0003b917          	auipc	s2,0x3b
     71c:	0600                	addi	s0,sp,768
     71e:	0262                	slli	tp,tp,0x18
     720:	0120                	addi	s0,sp,136
     722:	0000                	unimp
     724:	1770                	addi	a2,sp,940
     726:	07c8                	addi	a0,sp,964
     728:	0000                	unimp
     72a:	6306                	ld	t1,64(sp)
     72c:	2002                	fld	ft0,0(sp)
     72e:	0001                	nop
     730:	7800                	ld	s0,48(s0)
     732:	00007017          	auipc	zero,0x7
     736:	0600                	addi	s0,sp,768
     738:	0264                	addi	s1,sp,268
     73a:	0120                	addi	s0,sp,136
     73c:	0000                	unimp
     73e:	1780                	addi	s0,sp,992
     740:	06dc                	addi	a5,sp,836
     742:	0000                	unimp
     744:	6506                	ld	a0,64(sp)
     746:	cc02                	sw	zero,24(sp)
     748:	88000007          	0x88000007
     74c:	00008317          	auipc	t1,0x8
     750:	0600                	addi	s0,sp,768
     752:	0266                	slli	tp,tp,0x19
     754:	07dc                	addi	a5,sp,964
     756:	0000                	unimp
     758:	1790                	addi	a2,sp,992
     75a:	0000075b          	0x75b
     75e:	6706                	ld	a4,64(sp)
     760:	5402                	lw	s0,32(sp)
     762:	0000                	unimp
     764:	a800                	fsd	fs0,16(s0)
     766:	0000f317          	auipc	t1,0xf
     76a:	0600                	addi	s0,sp,768
     76c:	0268                	addi	a0,sp,268
     76e:	0120                	addi	s0,sp,136
     770:	0000                	unimp
     772:	17ac                	addi	a1,sp,1000
     774:	03da                	slli	t2,t2,0x16
     776:	0000                	unimp
     778:	6906                	ld	s2,64(sp)
     77a:	2002                	fld	ft0,0(sp)
     77c:	0001                	nop
     77e:	b400                	fsd	fs0,40(s0)
     780:	00036717          	auipc	a4,0x36
     784:	0600                	addi	s0,sp,768
     786:	026a                	slli	tp,tp,0x1a
     788:	0120                	addi	s0,sp,136
     78a:	0000                	unimp
     78c:	17bc                	addi	a5,sp,1000
     78e:	0000050f          	0x50f
     792:	6b06                	ld	s6,64(sp)
     794:	2002                	fld	ft0,0(sp)
     796:	0001                	nop
     798:	c400                	sw	s0,8(s0)
     79a:	0003a817          	auipc	a6,0x3a
     79e:	0600                	addi	s0,sp,768
     7a0:	026c                	addi	a1,sp,268
     7a2:	0120                	addi	s0,sp,136
     7a4:	0000                	unimp
     7a6:	17cc                	addi	a1,sp,996
     7a8:	00000593          	li	a1,0
     7ac:	6d06                	ld	s10,64(sp)
     7ae:	5402                	lw	s0,32(sp)
     7b0:	0000                	unimp
     7b2:	d400                	sw	s0,40(s0)
     7b4:	0800                	addi	s0,sp,16
     7b6:	0588                	addi	a0,sp,704
     7b8:	0000                	unimp
     7ba:	07c5                	addi	a5,a5,17
     7bc:	0000                	unimp
     7be:	7409                	lui	s0,0xfffe2
     7c0:	0000                	unimp
     7c2:	1900                	addi	s0,sp,176
     7c4:	0200                	addi	s0,sp,256
     7c6:	0708                	addi	a0,sp,896
     7c8:	026a                	slli	tp,tp,0x1a
     7ca:	0000                	unimp
     7cc:	8808                	0x8808
     7ce:	0005                	c.nop	1
     7d0:	dc00                	sw	s0,56(s0)
     7d2:	09000007          	0x9000007
     7d6:	0074                	addi	a3,sp,12
     7d8:	0000                	unimp
     7da:	88080007          	0x88080007
     7de:	0005                	c.nop	1
     7e0:	ec00                	sd	s0,24(s0)
     7e2:	09000007          	0x9000007
     7e6:	0074                	addi	a3,sp,12
     7e8:	0000                	unimp
     7ea:	681b0017          	auipc	zero,0x681b0
     7ee:	0601                	addi	a2,a2,0
     7f0:	0272                	slli	tp,tp,0x1c
     7f2:	0811                	addi	a6,a6,4
     7f4:	0000                	unimp
     7f6:	00023e17          	auipc	t3,0x23
     7fa:	0600                	addi	s0,sp,768
     7fc:	0275                	addi	tp,tp,29
     7fe:	0811                	addi	a6,a6,4
     800:	0000                	unimp
     802:	1700                	addi	s0,sp,928
     804:	08a2                	slli	a7,a7,0x8
     806:	0000                	unimp
     808:	7606                	ld	a2,96(sp)
     80a:	2102                	fld	ft2,0(sp)
     80c:	0008                	0x8
     80e:	f000                	sd	s0,32(s0)
     810:	0800                	addi	s0,sp,16
     812:	000002f7          	0x2f7
     816:	0821                	addi	a6,a6,8
     818:	0000                	unimp
     81a:	7409                	lui	s0,0xfffe2
     81c:	0000                	unimp
     81e:	1d00                	addi	s0,sp,688
     820:	0800                	addi	s0,sp,16
     822:	0066                	c.slli	zero,0x19
     824:	0000                	unimp
     826:	0831                	addi	a6,a6,12
     828:	0000                	unimp
     82a:	7409                	lui	s0,0xfffe2
     82c:	0000                	unimp
     82e:	1d00                	addi	s0,sp,688
     830:	1c00                	addi	s0,sp,560
     832:	0168                	addi	a0,sp,140
     834:	5706                	lw	a4,96(sp)
     836:	5402                	lw	s0,32(sp)
     838:	0008                	0x8
     83a:	1d00                	addi	s0,sp,688
     83c:	000007ef          	jal	a5,83c <_tbss_end+0x7d8>
     840:	6e06                	ld	t3,64(sp)
     842:	b402                	fsd	ft0,40(sp)
     844:	0006                	c.slli	zero,0x1
     846:	1d00                	addi	s0,sp,688
     848:	06b5                	addi	a3,a3,13
     84a:	0000                	unimp
     84c:	7706                	ld	a4,96(sp)
     84e:	ec02                	sd	zero,24(sp)
     850:	00000007          	0x7
     854:	8808                	0x8808
     856:	0005                	c.nop	1
     858:	6400                	ld	s0,8(s0)
     85a:	0008                	0x8
     85c:	0900                	addi	s0,sp,144
     85e:	0074                	addi	a3,sp,12
     860:	0000                	unimp
     862:	0018                	0x18
     864:	891e                	mv	s2,t2
     866:	0008                	0x8
     868:	0f00                	addi	s0,sp,912
     86a:	6408                	ld	a0,8(s0)
     86c:	0008                	0x8
     86e:	1f00                	addi	s0,sp,944
     870:	087a                	slli	a6,a6,0x1e
     872:	0000                	unimp
     874:	4514                	lw	a3,8(a0)
     876:	0004                	0x4
     878:	0000                	unimp
     87a:	086f080f          	0x86f080f
     87e:	0000                	unimp
     880:	0196080f          	0x196080f
     884:	0000                	unimp
     886:	911f 0008 1400      	0x14000008911f
     88c:	0054                	addi	a3,sp,4
     88e:	0000                	unimp
     890:	0f00                	addi	s0,sp,912
     892:	9708                	0x9708
     894:	0008                	0x8
     896:	0f00                	addi	s0,sp,912
     898:	8608                	0x8608
     89a:	0008                	0x8
     89c:	0800                	addi	s0,sp,16
     89e:	0622                	slli	a2,a2,0x8
     8a0:	0000                	unimp
     8a2:	08ad                	addi	a7,a7,11
     8a4:	0000                	unimp
     8a6:	7409                	lui	s0,0xfffe2
     8a8:	0000                	unimp
     8aa:	0200                	addi	s0,sp,256
     8ac:	2000                	fld	fs0,0(s0)
     8ae:	0675                	addi	a2,a2,29
     8b0:	0000                	unimp
     8b2:	fe06                	sd	ra,312(sp)
     8b4:	4502                	lw	a0,0(sp)
     8b6:	0004                	0x4
     8b8:	2000                	fld	fs0,0(s0)
     8ba:	066e                	slli	a2,a2,0x1b
     8bc:	0000                	unimp
     8be:	ff06                	sd	ra,440(sp)
     8c0:	4b02                	lw	s6,0(sp)
     8c2:	0004                	0x4
     8c4:	0300                	addi	s0,sp,384
     8c6:	000006bf 00341807 	0x341807000006bf
     8ce:	0000                	unimp
     8d0:	c515                	beqz	a0,8fc <_tbss_end+0x898>
     8d2:	0008                	0x8
     8d4:	0300                	addi	s0,sp,384
     8d6:	0752                	slli	a4,a4,0x14
     8d8:	0000                	unimp
     8da:	005b3007          	fld	ft0,5(s6) # 7b6cf <_tbss_end+0x7b66b>
     8de:	0000                	unimp
     8e0:	0005fe03          	0x5fe03
     8e4:	0700                	addi	s0,sp,896
     8e6:	7b52                	ld	s6,304(sp)
     8e8:	0000                	unimp
     8ea:	2100                	fld	fs0,0(a0)
     8ec:	0340                	addi	s0,sp,388
     8ee:	0000                	unimp
     8f0:	6308                	ld	a0,0(a4)
     8f2:	0582                	c.slli64	a1
     8f4:	0000                	unimp
     8f6:	0802                	c.slli64	a6
     8f8:	d904                	sw	s1,48(a0)
     8fa:	0005                	c.nop	1
     8fc:	0200                	addi	s0,sp,256
     8fe:	0404                	addi	s1,sp,512
     900:	00000223          	sb	zero,4(zero) # 4 <_tdata_begin+0x4>
     904:	1002                	c.slli	zero,0x20
     906:	d404                	sw	s1,40(s0)
     908:	0005                	c.nop	1
     90a:	2200                	fld	fs0,0(a2)
     90c:	07a2                	slli	a5,a5,0x8
     90e:	0000                	unimp
     910:	0405                	addi	s0,s0,1
     912:	0054                	addi	a3,sp,4
     914:	0000                	unimp
     916:	9909                	andi	a0,a0,-30
     918:	3602                	fld	fa2,32(sp)
     91a:	0009                	c.nop	2
     91c:	2300                	fld	fs0,0(a4)
     91e:	0692                	slli	a3,a3,0x4
     920:	0000                	unimp
     922:	247f                	0x247f
     924:	000004fb          	0x4fb
     928:	2400                	fld	fs0,8(s0)
     92a:	0021                	c.nop	8
     92c:	0000                	unimp
     92e:	2401                	sext.w	s0,s0
     930:	02de                	slli	t0,t0,0x17
     932:	0000                	unimp
     934:	0002                	c.slli64	zero
     936:	3f20                	fld	fs0,120(a4)
     938:	0005                	c.nop	1
     93a:	0900                	addi	s0,sp,144
     93c:	02a4                	addi	s1,sp,328
     93e:	0000090b          	0x90b
     942:	8f08                	0x8f08
     944:	0005                	c.nop	1
     946:	5200                	lw	s0,32(a2)
     948:	0009                	c.nop	2
     94a:	0900                	addi	s0,sp,144
     94c:	0074                	addi	a3,sp,12
     94e:	0000                	unimp
     950:	4215000f          	0x4215000f
     954:	0009                	c.nop	2
     956:	2500                	fld	fs0,8(a0)
     958:	0716                	slli	a4,a4,0x5
     95a:	0000                	unimp
     95c:	5601                	li	a2,-32
     95e:	0952                	slli	s2,s2,0x14
     960:	0000                	unimp
     962:	0309                	addi	t1,t1,2
     964:	08e8                	addi	a0,sp,92
     966:	4000                	lw	s0,0(s0)
     968:	0000                	unimp
     96a:	0000                	unimp
     96c:	8808                	0x8808
     96e:	0005                	c.nop	1
     970:	7c00                	ld	s0,56(s0)
     972:	0009                	c.nop	2
     974:	0900                	addi	s0,sp,144
     976:	0074                	addi	a3,sp,12
     978:	0000                	unimp
     97a:	ed260063          	beq	a2,s2,3a <_tdata_begin+0x3a>
     97e:	0002                	c.slli64	zero
     980:	0100                	addi	s0,sp,128
     982:	6c89                	lui	s9,0x2
     984:	0009                	c.nop	2
     986:	0800                	addi	s0,sp,16
     988:	08d0                	addi	a2,sp,84
     98a:	0000                	unimp
     98c:	00000997          	auipc	s3,0x0
     990:	7409                	lui	s0,0xfffe2
     992:	0000                	unimp
     994:	0e00                	addi	s0,sp,784
     996:	1500                	addi	s0,sp,672
     998:	00000987          	0x987
     99c:	fe25                	bnez	a2,914 <_tbss_end+0x8b0>
     99e:	0002                	c.slli64	zero
     9a0:	0100                	addi	s0,sp,128
     9a2:	978a                	add	a5,a5,sp
     9a4:	0009                	c.nop	2
     9a6:	0900                	addi	s0,sp,144
     9a8:	00091003          	lh	zero,0(s2) # 3b718 <_tbss_end+0x3b6b4>
     9ac:	0040                	addi	s0,sp,4
     9ae:	0000                	unimp
     9b0:	0800                	addi	s0,sp,16
     9b2:	08d0                	addi	a2,sp,84
     9b4:	0000                	unimp
     9b6:	09c1                	addi	s3,s3,16
     9b8:	0000                	unimp
     9ba:	7409                	lui	s0,0xfffe2
     9bc:	0000                	unimp
     9be:	1000                	addi	s0,sp,32
     9c0:	1500                	addi	s0,sp,672
     9c2:	09b1                	addi	s3,s3,12
     9c4:	0000                	unimp
     9c6:	ab25                	j	efe <_tbss_end+0xe9a>
     9c8:	0002                	c.slli64	zero
     9ca:	0100                	addi	s0,sp,128
     9cc:	0009c18b          	0x9c18b
     9d0:	0900                	addi	s0,sp,144
     9d2:	0008f803          	0x8f803
     9d6:	0040                	addi	s0,sp,4
     9d8:	0000                	unimp
     9da:	2700                	fld	fs0,8(a4)
     9dc:	000005af          	0x5af
     9e0:	c201                	beqz	a2,9e0 <_tbss_end+0x97c>
     9e2:	e002                	sd	zero,0(sp)
     9e4:	0008                	0x8
     9e6:	5c00                	lw	s0,56(s0)
     9e8:	0008                	0x8
     9ea:	0040                	addi	s0,sp,4
     9ec:	0000                	unimp
     9ee:	8800                	0x8800
     9f0:	0000                	unimp
     9f2:	0000                	unimp
     9f4:	0000                	unimp
     9f6:	0100                	addi	s0,sp,128
     9f8:	f09c                	sd	a5,32(s1)
     9fa:	000a                	c.slli	zero,0x2
     9fc:	2800                	fld	fs0,16(s0)
     9fe:	0094                	addi	a3,sp,64
     a00:	0000                	unimp
     a02:	c201                	beqz	a2,a02 <_tbss_end+0x99e>
     a04:	e002                	sd	zero,0(sp)
     a06:	0008                	0x8
     a08:	0000                	unimp
     a0a:	0000                	unimp
     a0c:	2900                	fld	fs0,16(a0)
     a0e:	7065                	c.lui	zero,0xffff9
     a10:	c2010063          	beqz	sp,fffffffffffffe30 <_end+0xffffffffbffff3f8>
     a14:	e002                	sd	zero,0(sp)
     a16:	0008                	0x8
     a18:	4c00                	lw	s0,24(s0)
     a1a:	0000                	unimp
     a1c:	2800                	fld	fs0,16(s0)
     a1e:	012a                	slli	sp,sp,0xa
     a20:	0000                	unimp
     a22:	c201                	beqz	a2,a22 <_tbss_end+0x9be>
     a24:	f002                	sd	zero,32(sp)
     a26:	000a                	c.slli	zero,0x2
     a28:	9500                	0x9500
     a2a:	0000                	unimp
     a2c:	2a00                	fld	fs0,16(a2)
     a2e:	0884                	addi	s1,sp,80
     a30:	4000                	lw	s0,0(s0)
     a32:	0000                	unimp
     a34:	0000                	unimp
     a36:	11da                	slli	gp,gp,0x36
     a38:	0000                	unimp
     a3a:	0a4c                	addi	a1,sp,276
     a3c:	0000                	unimp
     a3e:	095a012b          	0x95a012b
     a42:	000a0003          	lb	zero,0(s4)
     a46:	0040                	addi	s0,sp,4
     a48:	0000                	unimp
     a4a:	0000                	unimp
     a4c:	902a                	c.add	zero,a0
     a4e:	0008                	0x8
     a50:	0040                	addi	s0,sp,4
     a52:	0000                	unimp
     a54:	8b00                	0x8b00
     a56:	0012                	c.slli	zero,0x4
     a58:	6400                	ld	s0,8(s0)
     a5a:	000a                	c.slli	zero,0x2
     a5c:	2b00                	fld	fs0,16(a4)
     a5e:	5a01                	li	s4,-32
     a60:	8202                	jr	tp
     a62:	0000                	unimp
     a64:	942c                	0x942c
     a66:	0008                	0x8
     a68:	0040                	addi	s0,sp,4
     a6a:	0000                	unimp
     a6c:	da00                	sw	s0,48(a2)
     a6e:	0011                	c.nop	4
     a70:	2a00                	fld	fs0,16(a2)
     a72:	08a0                	addi	s0,sp,88
     a74:	4000                	lw	s0,0(s0)
     a76:	0000                	unimp
     a78:	0000                	unimp
     a7a:	11da                	slli	gp,gp,0x36
     a7c:	0000                	unimp
     a7e:	0a90                	addi	a2,sp,336
     a80:	0000                	unimp
     a82:	095a012b          	0x95a012b
     a86:	00099803          	lh	a6,0(s3) # 98c <_tbss_end+0x928>
     a8a:	0040                	addi	s0,sp,4
     a8c:	0000                	unimp
     a8e:	0000                	unimp
     a90:	ac2a                	fsd	fa0,24(sp)
     a92:	0008                	0x8
     a94:	0040                	addi	s0,sp,4
     a96:	0000                	unimp
     a98:	da00                	sw	s0,48(a2)
     a9a:	0011                	c.nop	4
     a9c:	af00                	fsd	fs0,24(a4)
     a9e:	000a                	c.slli	zero,0x2
     aa0:	2b00                	fld	fs0,16(a4)
     aa2:	5a01                	li	s4,-32
     aa4:	0309                	addi	t1,t1,2
     aa6:	0a20                	addi	s0,sp,280
     aa8:	4000                	lw	s0,0(s0)
     aaa:	0000                	unimp
     aac:	0000                	unimp
     aae:	2a00                	fld	fs0,16(a2)
     ab0:	08b8                	addi	a4,sp,88
     ab2:	4000                	lw	s0,0(s0)
     ab4:	0000                	unimp
     ab6:	0000                	unimp
     ab8:	0000128b          	0x128b
     abc:	00000ac7          	fmsub.s	fs5,ft0,ft0,ft0,rne
     ac0:	025a012b          	0x25a012b
     ac4:	0079                	c.nop	30
     ac6:	2c00                	fld	fs0,24(s0)
     ac8:	08bc                	addi	a5,sp,88
     aca:	4000                	lw	s0,0(s0)
     acc:	0000                	unimp
     ace:	0000                	unimp
     ad0:	11da                	slli	gp,gp,0x36
     ad2:	0000                	unimp
     ad4:	c82d                	beqz	s0,b46 <_tbss_end+0xae2>
     ad6:	0008                	0x8
     ad8:	0040                	addi	s0,sp,4
     ada:	0000                	unimp
     adc:	da00                	sw	s0,48(a2)
     ade:	0011                	c.nop	4
     ae0:	2b00                	fld	fs0,16(a4)
     ae2:	5a01                	li	s4,-32
     ae4:	0309                	addi	t1,t1,2
     ae6:	0998                	addi	a4,sp,208
     ae8:	4000                	lw	s0,0(s0)
     aea:	0000                	unimp
     aec:	0000                	unimp
     aee:	0000                	unimp
     af0:	08e0080f          	0x8e0080f
     af4:	0000                	unimp
     af6:	2c2e                	fld	fs8,200(sp)
     af8:	0006                	c.slli	zero,0x1
     afa:	0100                	addi	s0,sp,128
     afc:	02b9                	addi	t0,t0,14
     afe:	08d5                	addi	a7,a7,21
     b00:	0000                	unimp
     b02:	083c                	addi	a5,sp,24
     b04:	4000                	lw	s0,0(s0)
     b06:	0000                	unimp
     b08:	0000                	unimp
     b0a:	0020                	addi	s0,sp,8
     b0c:	0000                	unimp
     b0e:	0000                	unimp
     b10:	0000                	unimp
     b12:	9c01                	subw	s0,s0,s0
     b14:	0b41                	addi	s6,s6,16
     b16:	0000                	unimp
     b18:	0006a02f          	amoadd.w	zero,zero,(a3)
     b1c:	0100                	addi	s0,sp,128
     b1e:	08d502bb          	0x8d502bb
     b22:	0000                	unimp
     b24:	5a01                	li	s4,-32
     b26:	482c                	lw	a1,80(s0)
     b28:	0008                	0x8
     b2a:	0040                	addi	s0,sp,4
     b2c:	0000                	unimp
     b2e:	6300                	ld	s0,0(a4)
     b30:	000c                	0xc
     b32:	2c00                	fld	fs0,24(s0)
     b34:	084c                	addi	a1,sp,20
     b36:	4000                	lw	s0,0(s0)
     b38:	0000                	unimp
     b3a:	0000                	unimp
     b3c:	0b41                	addi	s6,s6,16
     b3e:	0000                	unimp
     b40:	2e00                	fld	fs0,24(a2)
     b42:	00aa                	slli	ra,ra,0xa
     b44:	0000                	unimp
     b46:	f501                	bnez	a0,a4e <_tbss_end+0x9ea>
     b48:	d501                	beqz	a0,a50 <_tbss_end+0x9ec>
     b4a:	0008                	0x8
     b4c:	1400                	addi	s0,sp,544
     b4e:	0008                	0x8
     b50:	0040                	addi	s0,sp,4
     b52:	0000                	unimp
     b54:	2800                	fld	fs0,16(s0)
     b56:	0000                	unimp
     b58:	0000                	unimp
     b5a:	0000                	unimp
     b5c:	0100                	addi	s0,sp,128
     b5e:	579c                	lw	a5,40(a5)
     b60:	000c                	0xc
     b62:	3000                	fld	fs0,32(s0)
     b64:	0202                	c.slli64	tp
     b66:	0000                	unimp
     b68:	0501                	addi	a0,a0,0
     b6a:	5702                	lw	a4,32(sp)
     b6c:	000c                	0xc
     b6e:	3000                	fld	fs0,32(s0)
     b70:	0495                	addi	s1,s1,5
     b72:	0000                	unimp
     b74:	0601                	addi	a2,a2,0
     b76:	d502                	sw	zero,168(sp)
     b78:	0008                	0x8
     b7a:	3000                	fld	fs0,32(s0)
     b7c:	056a                	slli	a0,a0,0x1a
     b7e:	0000                	unimp
     b80:	1001                	c.nop	-32
     b82:	d502                	sw	zero,168(sp)
     b84:	0008                	0x8
     b86:	3000                	fld	fs0,32(s0)
     b88:	00000293          	li	t0,0
     b8c:	2901                	sext.w	s2,s2
     b8e:	d502                	sw	zero,168(sp)
     b90:	0008                	0x8
     b92:	3000                	fld	fs0,32(s0)
     b94:	0619                	addi	a2,a2,6
     b96:	0000                	unimp
     b98:	2b01                	sext.w	s6,s6
     b9a:	d502                	sw	zero,168(sp)
     b9c:	0008                	0x8
     b9e:	3000                	fld	fs0,32(s0)
     ba0:	055a                	slli	a0,a0,0x16
     ba2:	0000                	unimp
     ba4:	2c01                	sext.w	s8,s8
     ba6:	d502                	sw	zero,168(sp)
     ba8:	0008                	0x8
     baa:	3000                	fld	fs0,32(s0)
     bac:	04d5                	addi	s1,s1,21
     bae:	0000                	unimp
     bb0:	2d01                	sext.w	s10,s10
     bb2:	d502                	sw	zero,168(sp)
     bb4:	0008                	0x8
     bb6:	3000                	fld	fs0,32(s0)
     bb8:	000005bb          	addw	a1,zero,zero
     bbc:	2e01                	sext.w	t3,t3
     bbe:	d502                	sw	zero,168(sp)
     bc0:	0008                	0x8
     bc2:	3000                	fld	fs0,32(s0)
     bc4:	00000037          	lui	zero,0x0
     bc8:	2f01                	sext.w	t5,t5
     bca:	5d02                	lw	s10,32(sp)
     bcc:	000c                	0xc
     bce:	3000                	fld	fs0,32(s0)
     bd0:	0841                	addi	a6,a6,16
     bd2:	0000                	unimp
     bd4:	3001                	0x3001
     bd6:	5d02                	lw	s10,32(sp)
     bd8:	000c                	0xc
     bda:	3000                	fld	fs0,32(s0)
     bdc:	0524                	addi	s1,sp,648
     bde:	0000                	unimp
     be0:	3101                	addiw	sp,sp,-32
     be2:	c502                	sw	zero,136(sp)
     be4:	0008                	0x8
     be6:	3000                	fld	fs0,32(s0)
     be8:	000002c3          	fmadd.s	ft5,ft0,ft0,ft0,rne
     bec:	3201                	addiw	tp,tp,-32
     bee:	c502                	sw	zero,136(sp)
     bf0:	0008                	0x8
     bf2:	3100                	fld	fs0,32(a0)
     bf4:	00000c03          	lb	s8,0(zero) # 0 <_tdata_begin>
     bf8:	6932                	ld	s2,264(sp)
     bfa:	0100                	addi	s0,sp,128
     bfc:	021f 0054 0000      	0x54021f
     c02:	3100                	fld	fs0,32(a0)
     c04:	0c1f 0000 6932      	0x693200000c1f
     c0a:	0100                	addi	s0,sp,128
     c0c:	0235                	addi	tp,tp,13
     c0e:	0054                	addi	a3,sp,4
     c10:	0000                	unimp
     c12:	006a3233          	sltu	tp,s4,t1
     c16:	5901                	li	s2,-32
     c18:	5402                	lw	s0,32(sp)
     c1a:	0000                	unimp
     c1c:	0000                	unimp
     c1e:	3100                	fld	fs0,32(a0)
     c20:	00000c3b          	addw	s8,zero,zero
     c24:	6932                	ld	s2,264(sp)
     c26:	0100                	addi	s0,sp,128
     c28:	0272                	slli	tp,tp,0x1c
     c2a:	0054                	addi	a3,sp,4
     c2c:	0000                	unimp
     c2e:	006a3233          	sltu	tp,s4,t1
     c32:	8501                	c.srai64	a0
     c34:	5402                	lw	s0,32(sp)
     c36:	0000                	unimp
     c38:	0000                	unimp
     c3a:	2d00                	fld	fs0,24(a0)
     c3c:	0828                	addi	a0,sp,24
     c3e:	4000                	lw	s0,0(s0)
     c40:	0000                	unimp
     c42:	0000                	unimp
     c44:	11da                	slli	gp,gp,0x36
     c46:	0000                	unimp
     c48:	095a012b          	0x95a012b
     c4c:	0009e803          	lwu	a6,0(s3)
     c50:	0040                	addi	s0,sp,4
     c52:	0000                	unimp
     c54:	0000                	unimp
     c56:	0f00                	addi	s0,sp,912
     c58:	d508                	sw	a0,40(a0)
     c5a:	0008                	0x8
     c5c:	0f00                	addi	s0,sp,912
     c5e:	c508                	sw	a0,8(a0)
     c60:	0008                	0x8
     c62:	3400                	fld	fs0,40(s0)
     c64:	05a2                	slli	a1,a1,0x8
     c66:	0000                	unimp
     c68:	e801                	bnez	s0,c78 <_tbss_end+0xc14>
     c6a:	ec01                	bnez	s0,c82 <_tbss_end+0xc1e>
     c6c:	00400007          	0x400007
     c70:	0000                	unimp
     c72:	2800                	fld	fs0,16(s0)
     c74:	0000                	unimp
     c76:	0000                	unimp
     c78:	0000                	unimp
     c7a:	0100                	addi	s0,sp,128
     c7c:	c29c                	sw	a5,0(a3)
     c7e:	000c                	0xc
     c80:	3500                	fld	fs0,40(a0)
     c82:	07ec                	addi	a1,sp,972
     c84:	4000                	lw	s0,0(s0)
     c86:	0000                	unimp
     c88:	0000                	unimp
     c8a:	0004                	0x4
     c8c:	0000                	unimp
     c8e:	0000                	unimp
     c90:	0000                	unimp
     c92:	00000ca7          	0xca7
     c96:	0936                	slli	s2,s2,0xd
     c98:	0008                	0x8
     c9a:	0100                	addi	s0,sp,128
     c9c:	01e9                	addi	gp,gp,26
     c9e:	0074                	addi	a3,sp,12
     ca0:	0000                	unimp
     ca2:	00ce                	slli	ra,ra,0x13
     ca4:	0000                	unimp
     ca6:	2c00                	fld	fs0,24(s0)
     ca8:	0804                	addi	s1,sp,16
     caa:	4000                	lw	s0,0(s0)
     cac:	0000                	unimp
     cae:	0000                	unimp
     cb0:	0000138b          	0x138b
     cb4:	082c                	addi	a1,sp,24
     cb6:	0008                	0x8
     cb8:	0040                	addi	s0,sp,4
     cba:	0000                	unimp
     cbc:	c200                	sw	s0,0(a2)
     cbe:	000c                	0xc
     cc0:	0000                	unimp
     cc2:	00006537          	lui	a0,0x6
     cc6:	0100                	addi	s0,sp,128
     cc8:	01d4                	addi	a3,sp,196
     cca:	07b8                	addi	a4,sp,968
     ccc:	4000                	lw	s0,0(s0)
     cce:	0000                	unimp
     cd0:	0000                	unimp
     cd2:	0034                	addi	a3,sp,8
     cd4:	0000                	unimp
     cd6:	0000                	unimp
     cd8:	0000                	unimp
     cda:	9c01                	subw	s0,s0,s0
     cdc:	0138                	addi	a4,sp,136
     cde:	0001                	nop
     ce0:	0100                	addi	s0,sp,128
     ce2:	f50101c7          	0xf50101c7
     ce6:	000c                	0xc
     ce8:	3900                	fld	fs0,48(a0)
     cea:	01006863          	bltu	zero,a6,cfa <_tbss_end+0xc96>
     cee:	058801c7          	0x58801c7
     cf2:	0000                	unimp
     cf4:	3a00                	fld	fs0,48(a2)
     cf6:	00000647          	fmsub.s	fa2,ft0,ft0,ft0,rne
     cfa:	8c01                	sub	s0,s0,s0
     cfc:	0054                	addi	a3,sp,4
     cfe:	0000                	unimp
     d00:	04e0                	addi	s0,sp,588
     d02:	4000                	lw	s0,0(s0)
     d04:	0000                	unimp
     d06:	0000                	unimp
     d08:	02cc                	addi	a1,sp,324
     d0a:	0000                	unimp
     d0c:	0000                	unimp
     d0e:	0000                	unimp
     d10:	9c01                	subw	s0,s0,s0
     d12:	0000113f 0005cc3b 	0x5cc3b0000113f
     d1a:	0100                	addi	s0,sp,128
     d1c:	d58d                	beqz	a1,c46 <_tbss_end+0xbe2>
     d1e:	0008                	0x8
     d20:	0000                	unimp
     d22:	00024d3b          	0x24d3b
     d26:	0100                	addi	s0,sp,128
     d28:	d58e                	sw	gp,232(sp)
     d2a:	0008                	0x8
     d2c:	6400                	ld	s0,8(s0)
     d2e:	0000bc3b          	0xbc3b
     d32:	0100                	addi	s0,sp,128
     d34:	0008d58f          	0x8d58f
     d38:	0000                	unimp
     d3a:	0003813b          	addw	sp,t2,zero
     d3e:	0100                	addi	s0,sp,128
     d40:	d590                	sw	a2,40(a1)
     d42:	0008                	0x8
     d44:	4000                	lw	s0,0(s0)
     d46:	0006363b          	0x6363b
     d4a:	0100                	addi	s0,sp,128
     d4c:	d591                	beqz	a1,c58 <_tbss_end+0xbf4>
     d4e:	0008                	0x8
     d50:	4000                	lw	s0,0(s0)
     d52:	743c                	ld	a5,104(s0)
     d54:	01006b63          	bltu	zero,a6,d6a <_tbss_end+0xd06>
     d58:	d592                	sw	tp,232(sp)
     d5a:	0008                	0x8
     d5c:	c400                	sw	s0,8(s0)
     d5e:	3b09                	addiw	s6,s6,-30
     d60:	0000008f          	0x8f
     d64:	9301                	srli	a4,a4,0x20
     d66:	08d5                	addi	a7,a7,21
     d68:	0000                	unimp
     d6a:	72743d0f          	0x72743d0f
     d6e:	94010063          	beqz	sp,fffffffffffffeae <_end+0xffffffffbffff476>
     d72:	08d5                	addi	a7,a7,21
     d74:	0000                	unimp
     d76:	3b15                	addiw	s6,s6,-27
     d78:	00df 0000 9501      	0x9501000000df
     d7e:	08d5                	addi	a7,a7,21
     d80:	0000                	unimp
     d82:	3d06                	fld	fs10,96(sp)
     d84:	7274                	ld	a3,224(a2)
     d86:	0070                	addi	a2,sp,12
     d88:	9601                	srai	a2,a2,0x20
     d8a:	08d5                	addi	a7,a7,21
     d8c:	0000                	unimp
     d8e:	3b06                	fld	fs6,96(sp)
     d90:	06e6                	slli	a3,a3,0x19
     d92:	0000                	unimp
     d94:	9701                	srai	a4,a4,0x20
     d96:	08d5                	addi	a7,a7,21
     d98:	0000                	unimp
     d9a:	6c633d03          	ld	s10,1734(t1) # fe2c <_tbss_end+0xfdc8>
     d9e:	0100                	addi	s0,sp,128
     da0:	d598                	sw	a4,40(a1)
     da2:	0008                	0x8
     da4:	0600                	addi	s0,sp,768
     da6:	0001443b          	0x1443b
     daa:	0100                	addi	s0,sp,128
     dac:	d599                	beqz	a1,cba <_tbss_end+0xc56>
     dae:	0008                	0x8
     db0:	0400                	addi	s0,sp,512
     db2:	0003323b          	0x3323b
     db6:	0100                	addi	s0,sp,128
     db8:	d59a                	sw	t1,232(sp)
     dba:	0008                	0x8
     dbc:	1400                	addi	s0,sp,544
     dbe:	743d                	lui	s0,0xfffef
     dc0:	01007277          	0x1007277
     dc4:	0008d59b          	srliw	a1,a7,0x0
     dc8:	0600                	addi	s0,sp,768
     dca:	0002813b          	addw	sp,t0,zero
     dce:	0100                	addi	s0,sp,128
     dd0:	d59c                	sw	a5,40(a1)
     dd2:	0008                	0x8
     dd4:	0400                	addi	s0,sp,512
     dd6:	0002143b          	sllw	s0,tp,zero
     dda:	0100                	addi	s0,sp,128
     ddc:	d59d                	beqz	a1,d0a <_tbss_end+0xca6>
     dde:	0008                	0x8
     de0:	0300                	addi	s0,sp,384
     de2:	00048c3b          	addw	s8,s1,zero
     de6:	0100                	addi	s0,sp,128
     de8:	d59e                	sw	t2,232(sp)
     dea:	0008                	0x8
     dec:	6800                	ld	s0,16(s0)
     dee:	383e                	fld	fa6,488(sp)
     df0:	0008                	0x8
     df2:	0100                	addi	s0,sp,128
     df4:	d59f 0008 b000      	0xb0000008d59f
     dfa:	3e6d                	addiw	t3,t3,-5
     dfc:	000003a3          	sb	zero,7(zero) # 7 <_tdata_begin+0x7>
     e00:	a001                	j	e00 <_tbss_end+0xd9c>
     e02:	08d5                	addi	a7,a7,21
     e04:	0000                	unimp
     e06:	030d                	addi	t1,t1,3
     e08:	5b3e                	lw	s6,236(sp)
     e0a:	0002                	c.slli64	zero
     e0c:	0100                	addi	s0,sp,128
     e0e:	d5a1                	beqz	a1,d56 <_tbss_end+0xcf2>
     e10:	0008                	0x8
     e12:	0000                	unimp
     e14:	3e02                	fld	ft8,32(sp)
     e16:	000002cf          	fnmadd.s	ft5,ft0,ft0,ft0,rne
     e1a:	a201                	j	f1a <_tbss_end+0xeb6>
     e1c:	08d5                	addi	a7,a7,21
     e1e:	0000                	unimp
     e20:	0200                	addi	s0,sp,256
     e22:	7b3e                	ld	s6,488(sp)
     e24:	01000007          	0x1000007
     e28:	0008d5a3          	0x8d5a3
     e2c:	0000                	unimp
     e2e:	3b01                	addiw	s6,s6,-32
     e30:	0509                	addi	a0,a0,2
     e32:	0000                	unimp
     e34:	a401                	j	1034 <_tbss_end+0xfd0>
     e36:	08d5                	addi	a7,a7,21
     e38:	0000                	unimp
     e3a:	3f40                	fld	fs0,184(a4)
     e3c:	039e                	slli	t2,t2,0x7
     e3e:	0000                	unimp
     e40:	a501                	j	1440 <_tbss_end+0x13dc>
     e42:	08d5                	addi	a7,a7,21
     e44:	0000                	unimp
     e46:	0001703b          	0x1703b
     e4a:	0100                	addi	s0,sp,128
     e4c:	d5a6                	sw	s1,232(sp)
     e4e:	0008                	0x8
     e50:	0400                	addi	s0,sp,512
     e52:	00031f3b          	sllw	t5,t1,zero
     e56:	0100                	addi	s0,sp,128
     e58:	0008d5a7          	0x8d5a7
     e5c:	0300                	addi	s0,sp,384
     e5e:	0000003f d5a80100 	0xd5a801000000003f
     e66:	0008                	0x8
     e68:	3b00                	fld	fs0,48(a4)
     e6a:	02f5                	addi	t0,t0,29
     e6c:	0000                	unimp
     e6e:	a901                	j	127e <_tbss_end+0x121a>
     e70:	08d5                	addi	a7,a7,21
     e72:	0000                	unimp
     e74:	3d09                	addiw	s10,s10,-30
     e76:	006c7763          	bgeu	s8,t1,e84 <_tbss_end+0xe20>
     e7a:	aa01                	j	f8a <_tbss_end+0xf26>
     e7c:	08d5                	addi	a7,a7,21
     e7e:	0000                	unimp
     e80:	3d05                	addiw	s10,s10,-31
     e82:	6c61                	lui	s8,0x18
     e84:	0100                	addi	s0,sp,128
     e86:	0008d5ab          	0x8d5ab
     e8a:	0400                	addi	s0,sp,512
     e8c:	773d                	lui	a4,0xfffef
     e8e:	006c                	addi	a1,sp,12
     e90:	ac01                	j	10a0 <_tbss_end+0x103c>
     e92:	08d5                	addi	a7,a7,21
     e94:	0000                	unimp
     e96:	3d09                	addiw	s10,s10,-30
     e98:	6c72                	ld	s8,280(sp)
     e9a:	0100                	addi	s0,sp,128
     e9c:	d5ad                	beqz	a1,e06 <_tbss_end+0xda2>
     e9e:	0008                	0x8
     ea0:	0a00                	addi	s0,sp,272
     ea2:	6d3c                	ld	a5,88(a0)
     ea4:	3072                	fld	ft0,312(sp)
     ea6:	0100                	addi	s0,sp,128
     ea8:	d5ae                	sw	a1,232(sp)
     eaa:	0008                	0x8
     eac:	2800                	fld	fs0,16(s0)
     eae:	3d05                	addiw	s10,s10,-31
     eb0:	726d                	lui	tp,0xffffb
     eb2:	0031                	c.nop	12
     eb4:	ae01                	j	11c4 <_tbss_end+0x1160>
     eb6:	08d5                	addi	a7,a7,21
     eb8:	0000                	unimp
     eba:	3c16                	fld	fs8,352(sp)
     ebc:	726d                	lui	tp,0xffffb
     ebe:	0032                	c.slli	zero,0xc
     ec0:	ae01                	j	11d0 <_tbss_end+0x116c>
     ec2:	08d5                	addi	a7,a7,21
     ec4:	0000                	unimp
     ec6:	0200                	addi	s0,sp,256
     ec8:	6d3d                	lui	s10,0xf
     eca:	3372                	fld	ft6,312(sp)
     ecc:	0100                	addi	s0,sp,128
     ece:	d5ae                	sw	a1,232(sp)
     ed0:	0008                	0x8
     ed2:	0000                	unimp
     ed4:	0001693b          	0x1693b
     ed8:	0100                	addi	s0,sp,128
     eda:	0008d5af          	0x8d5af
     ede:	0200                	addi	s0,sp,256
     ee0:	00065b3b          	srlw	s6,a2,zero
     ee4:	0100                	addi	s0,sp,128
     ee6:	d5b0                	sw	a2,104(a1)
     ee8:	0008                	0x8
     eea:	0100                	addi	s0,sp,128
     eec:	0007de3b          	srlw	t3,a5,zero
     ef0:	0100                	addi	s0,sp,128
     ef2:	d5b1                	beqz	a1,e3e <_tbss_end+0xdda>
     ef4:	0008                	0x8
     ef6:	0000                	unimp
     ef8:	0000163b          	sllw	a2,zero,zero
     efc:	0100                	addi	s0,sp,128
     efe:	d5b2                	sw	a2,232(sp)
     f00:	0008                	0x8
     f02:	0100                	addi	s0,sp,128
     f04:	a740                	fsd	fs0,136(a4)
     f06:	0004                	0x4
     f08:	0100                	addi	s0,sp,128
     f0a:	0146                	slli	sp,sp,0x11
     f0c:	08d5                	addi	a7,a7,21
     f0e:	0000                	unimp
     f10:	400a                	0x400a
     f12:	03f9                	addi	t2,t2,30
     f14:	0000                	unimp
     f16:	4701                	li	a4,0
     f18:	d501                	beqz	a0,e20 <_tbss_end+0xdbc>
     f1a:	0008                	0x8
     f1c:	0900                	addi	s0,sp,144
     f1e:	1e40                	addi	s0,sp,820
     f20:	01000007          	0x1000007
     f24:	0148                	addi	a0,sp,132
     f26:	08d5                	addi	a7,a7,21
     f28:	0000                	unimp
     f2a:	4002                	0x4002
     f2c:	0229                	addi	tp,tp,10
     f2e:	0000                	unimp
     f30:	4901                	li	s2,0
     f32:	d501                	beqz	a0,e3a <_tbss_end+0xdd6>
     f34:	0008                	0x8
     f36:	0100                	addi	s0,sp,128
     f38:	2340                	fld	fs0,128(a4)
     f3a:	0001                	nop
     f3c:	0100                	addi	s0,sp,128
     f3e:	0159                	addi	sp,sp,22
     f40:	08d5                	addi	a7,a7,21
     f42:	0000                	unimp
     f44:	4001                	c.li	zero,0
     f46:	06ff                	0x6ff
     f48:	0000                	unimp
     f4a:	5901                	li	s2,-32
     f4c:	d501                	beqz	a0,e54 <_tbss_end+0xdf0>
     f4e:	0008                	0x8
     f50:	0400                	addi	s0,sp,512
     f52:	e440                	sd	s0,136(s0)
     f54:	0000                	unimp
     f56:	0100                	addi	s0,sp,128
     f58:	0159                	addi	sp,sp,22
     f5a:	08d5                	addi	a7,a7,21
     f5c:	0000                	unimp
     f5e:	4006                	0x4006
     f60:	02b8                	addi	a4,sp,328
     f62:	0000                	unimp
     f64:	5901                	li	s2,-32
     f66:	d501                	beqz	a0,e6e <_tbss_end+0xe0a>
     f68:	0008                	0x8
     f6a:	0000                	unimp
     f6c:	5540                	lw	s0,44(a0)
     f6e:	0000                	unimp
     f70:	0100                	addi	s0,sp,128
     f72:	0164                	addi	s1,sp,140
     f74:	08d5                	addi	a7,a7,21
     f76:	0000                	unimp
     f78:	400a                	0x400a
     f7a:	0768                	addi	a0,sp,908
     f7c:	0000                	unimp
     f7e:	6401                	0x6401
     f80:	d501                	beqz	a0,e88 <_tbss_end+0xe24>
     f82:	0008                	0x8
     f84:	0a00                	addi	s0,sp,272
     f86:	8b40                	0x8b40
     f88:	0006                	c.slli	zero,0x1
     f8a:	0100                	addi	s0,sp,128
     f8c:	0168                	addi	a0,sp,140
     f8e:	08d5                	addi	a7,a7,21
     f90:	0000                	unimp
     f92:	41c8                	lw	a0,4(a1)
     f94:	01f4                	addi	a3,sp,204
     f96:	0000                	unimp
     f98:	6801                	0x6801
     f9a:	d501                	beqz	a0,ea2 <_tbss_end+0xe3e>
     f9c:	0008                	0x8
     f9e:	f400                	sd	s0,40(s0)
     fa0:	4101                	li	sp,0
     fa2:	059c                	addi	a5,sp,704
     fa4:	0000                	unimp
     fa6:	6901                	0x6901
     fa8:	d501                	beqz	a0,eb0 <_tbss_end+0xe4c>
     faa:	0008                	0x8
     fac:	2c00                	fld	fs0,24(s0)
     fae:	3601                	addiw	a2,a2,-32
     fb0:	0781                	addi	a5,a5,0
     fb2:	0000                	unimp
     fb4:	9301                	srli	a4,a4,0x20
     fb6:	d501                	beqz	a0,ebe <_tbss_end+0xe5a>
     fb8:	0008                	0x8
     fba:	f100                	sd	s0,32(a0)
     fbc:	0000                	unimp
     fbe:	3500                	fld	fs0,40(a0)
     fc0:	053c                	addi	a5,sp,648
     fc2:	4000                	lw	s0,0(s0)
     fc4:	0000                	unimp
     fc6:	0000                	unimp
     fc8:	004c                	addi	a1,sp,4
     fca:	0000                	unimp
     fcc:	0000                	unimp
     fce:	0000                	unimp
     fd0:	0fe2                	slli	t6,t6,0x18
     fd2:	0000                	unimp
     fd4:	6942                	ld	s2,16(sp)
     fd6:	0100                	addi	s0,sp,128
     fd8:	000054d7          	0x54d7
     fdc:	2700                	fld	fs0,8(a4)
     fde:	0001                	nop
     fe0:	0000                	unimp
     fe2:	942a                	add	s0,s0,a0
     fe4:	0005                	c.nop	1
     fe6:	0040                	addi	s0,sp,4
     fe8:	0000                	unimp
     fea:	da00                	sw	s0,48(a2)
     fec:	0011                	c.nop	4
     fee:	0100                	addi	s0,sp,128
     ff0:	0010                	0x10
     ff2:	2b00                	fld	fs0,16(a4)
     ff4:	5a01                	li	s4,-32
     ff6:	0309                	addi	t1,t1,2
     ff8:	0920                	addi	s0,sp,152
     ffa:	4000                	lw	s0,0(s0)
     ffc:	0000                	unimp
     ffe:	0000                	unimp
    1000:	2a00                	fld	fs0,16(a2)
    1002:	0698                	addi	a4,sp,832
    1004:	4000                	lw	s0,0(s0)
    1006:	0000                	unimp
    1008:	0000                	unimp
    100a:	11da                	slli	gp,gp,0x36
    100c:	0000                	unimp
    100e:	1020                	addi	s0,sp,40
    1010:	0000                	unimp
    1012:	095a012b          	0x95a012b
    1016:	00093803          	ld	a6,0(s2)
    101a:	0040                	addi	s0,sp,4
    101c:	0000                	unimp
    101e:	0000                	unimp
    1020:	c82a                	sw	a0,16(sp)
    1022:	0006                	c.slli	zero,0x1
    1024:	0040                	addi	s0,sp,4
    1026:	0000                	unimp
    1028:	0300                	addi	s0,sp,384
    102a:	0014                	0x14
    102c:	3900                	fld	fs0,48(a0)
    102e:	0010                	0x10
    1030:	2b00                	fld	fs0,16(a4)
    1032:	5a01                	li	s4,-32
    1034:	012c0a03          	lb	s4,18(s8) # 18012 <_tbss_end+0x17fae>
    1038:	2a00                	fld	fs0,16(a2)
    103a:	06d0                	addi	a2,sp,836
    103c:	4000                	lw	s0,0(s0)
    103e:	0000                	unimp
    1040:	0000                	unimp
    1042:	11da                	slli	gp,gp,0x36
    1044:	0000                	unimp
    1046:	1051                	c.nop	-12
    1048:	0000                	unimp
    104a:	025a012b          	0x25a012b
    104e:	0084                	addi	s1,sp,64
    1050:	2a00                	fld	fs0,16(a2)
    1052:	06dc                	addi	a5,sp,836
    1054:	4000                	lw	s0,0(s0)
    1056:	0000                	unimp
    1058:	0000                	unimp
    105a:	0000128b          	0x128b
    105e:	1069                	c.nop	-6
    1060:	0000                	unimp
    1062:	025a012b          	0x25a012b
    1066:	0079                	c.nop	30
    1068:	2c00                	fld	fs0,24(s0)
    106a:	06e0                	addi	s0,sp,844
    106c:	4000                	lw	s0,0(s0)
    106e:	0000                	unimp
    1070:	0000                	unimp
    1072:	11da                	slli	gp,gp,0x36
    1074:	0000                	unimp
    1076:	e82a                	sd	a0,16(sp)
    1078:	0006                	c.slli	zero,0x1
    107a:	0040                	addi	s0,sp,4
    107c:	0000                	unimp
    107e:	da00                	sw	s0,48(a2)
    1080:	0011                	c.nop	4
    1082:	8e00                	0x8e00
    1084:	0010                	0x10
    1086:	2b00                	fld	fs0,16(a4)
    1088:	5a01                	li	s4,-32
    108a:	8302                	jr	t1
    108c:	0000                	unimp
    108e:	082a                	slli	a6,a6,0xa
    1090:	00400007          	0x400007
    1094:	0000                	unimp
    1096:	0300                	addi	s0,sp,384
    1098:	0014                	0x14
    109a:	a700                	fsd	fs0,8(a4)
    109c:	0010                	0x10
    109e:	2b00                	fld	fs0,16(a4)
    10a0:	5a01                	li	s4,-32
    10a2:	012c0a03          	lb	s4,18(s8)
    10a6:	2a00                	fld	fs0,16(a2)
    10a8:	0714                	addi	a3,sp,896
    10aa:	4000                	lw	s0,0(s0)
    10ac:	0000                	unimp
    10ae:	0000                	unimp
    10b0:	11da                	slli	gp,gp,0x36
    10b2:	0000                	unimp
    10b4:	10c6                	slli	ra,ra,0x31
    10b6:	0000                	unimp
    10b8:	095a012b          	0x95a012b
    10bc:	00095003          	lhu	zero,0(s2)
    10c0:	0040                	addi	s0,sp,4
    10c2:	0000                	unimp
    10c4:	0000                	unimp
    10c6:	2c2a                	fld	fs8,136(sp)
    10c8:	00400007          	0x400007
    10cc:	0000                	unimp
    10ce:	da00                	sw	s0,48(a2)
    10d0:	0011                	c.nop	4
    10d2:	e500                	sd	s0,8(a0)
    10d4:	0010                	0x10
    10d6:	2b00                	fld	fs0,16(a4)
    10d8:	5a01                	li	s4,-32
    10da:	0309                	addi	t1,t1,2
    10dc:	0968                	addi	a0,sp,156
    10de:	4000                	lw	s0,0(s0)
    10e0:	0000                	unimp
    10e2:	0000                	unimp
    10e4:	2a00                	fld	fs0,16(a2)
    10e6:	074c                	addi	a1,sp,900
    10e8:	4000                	lw	s0,0(s0)
    10ea:	0000                	unimp
    10ec:	0000                	unimp
    10ee:	11da                	slli	gp,gp,0x36
    10f0:	0000                	unimp
    10f2:	1104                	addi	s1,sp,160
    10f4:	0000                	unimp
    10f6:	095a012b          	0x95a012b
    10fa:	0009a003          	lw	zero,0(s3)
    10fe:	0040                	addi	s0,sp,4
    1100:	0000                	unimp
    1102:	0000                	unimp
    1104:	582a                	lw	a6,168(sp)
    1106:	00400007          	0x400007
    110a:	0000                	unimp
    110c:	da00                	sw	s0,48(a2)
    110e:	0011                	c.nop	4
    1110:	2300                	fld	fs0,0(a4)
    1112:	0011                	c.nop	4
    1114:	2b00                	fld	fs0,16(a4)
    1116:	5a01                	li	s4,-32
    1118:	0309                	addi	t1,t1,2
    111a:	09b8                	addi	a4,sp,216
    111c:	4000                	lw	s0,0(s0)
    111e:	0000                	unimp
    1120:	0000                	unimp
    1122:	2d00                	fld	fs0,24(a0)
    1124:	0778                	addi	a4,sp,908
    1126:	4000                	lw	s0,0(s0)
    1128:	0000                	unimp
    112a:	0000                	unimp
    112c:	11da                	slli	gp,gp,0x36
    112e:	0000                	unimp
    1130:	095a012b          	0x95a012b
    1134:	0009d003          	lhu	zero,0(s3)
    1138:	0040                	addi	s0,sp,4
    113a:	0000                	unimp
    113c:	0000                	unimp
    113e:	4300                	lw	s0,0(a4)
    1140:	000000b3          	add	ra,zero,zero
    1144:	8401                	c.srai64	s0
    1146:	08d5                	addi	a7,a7,21
    1148:	0000                	unimp
    114a:	6201                	0x6201
    114c:	0011                	c.nop	4
    114e:	4400                	lw	s0,8(s0)
    1150:	0061                	c.nop	24
    1152:	8401                	c.srai64	s0
    1154:	08d5                	addi	a7,a7,21
    1156:	0000                	unimp
    1158:	6244                	ld	s1,128(a2)
    115a:	0100                	addi	s0,sp,128
    115c:	d584                	sw	s1,40(a1)
    115e:	0008                	0x8
    1160:	0000                	unimp
    1162:	e745                	bnez	a4,120a <_tbss_end+0x11a6>
    1164:	0005                	c.nop	1
    1166:	0100                	addi	s0,sp,128
    1168:	0005826b          	0x5826b
    116c:	3400                	fld	fs0,40(s0)
    116e:	0004                	0x4
    1170:	0040                	addi	s0,sp,4
    1172:	0000                	unimp
    1174:	9800                	0x9800
    1176:	0000                	unimp
    1178:	0000                	unimp
    117a:	0000                	unimp
    117c:	0100                	addi	s0,sp,128
    117e:	da9c                	sw	a5,48(a3)
    1180:	0011                	c.nop	4
    1182:	4600                	lw	s0,8(a2)
    1184:	7562                	ld	a0,56(sp)
    1186:	0066                	c.slli	zero,0x19
    1188:	6b01                	0x6b01
    118a:	0582                	c.slli64	a1
    118c:	0000                	unimp
    118e:	00000173          	0x173
    1192:	00031747          	fmsub.s	fa4,ft6,ft0,ft0,rtz
    1196:	0100                	addi	s0,sp,128
    1198:	886c                	0x886c
    119a:	0005                	c.nop	1
    119c:	bc00                	fsd	fs0,56(s0)
    119e:	0001                	nop
    11a0:	4200                	lw	s0,0(a2)
    11a2:	6469                	lui	s0,0x1a
    11a4:	0078                	addi	a4,sp,12
    11a6:	6d01                	0x6d01
    11a8:	08d5                	addi	a7,a7,21
    11aa:	0000                	unimp
    11ac:	01f2                	slli	gp,gp,0x1c
    11ae:	0000                	unimp
    11b0:	0005aa47          	fmsub.s	fs4,fa1,ft0,ft0,rdn
    11b4:	0100                	addi	s0,sp,128
    11b6:	d56e                	sw	s11,168(sp)
    11b8:	0008                	0x8
    11ba:	5100                	lw	s0,32(a0)
    11bc:	0002                	c.slli64	zero
    11be:	2c00                	fld	fs0,24(s0)
    11c0:	0458                	addi	a4,sp,516
    11c2:	4000                	lw	s0,0(s0)
    11c4:	0000                	unimp
    11c6:	0000                	unimp
    11c8:	12f2                	slli	t0,t0,0x3c
    11ca:	0000                	unimp
    11cc:	782c                	ld	a1,112(s0)
    11ce:	0004                	0x4
    11d0:	0040                	addi	s0,sp,4
    11d2:	0000                	unimp
    11d4:	f200                	sd	s0,32(a2)
    11d6:	0012                	c.slli	zero,0x4
    11d8:	0000                	unimp
    11da:	0548                	addi	a0,sp,644
    11dc:	0000                	unimp
    11de:	0100                	addi	s0,sp,128
    11e0:	dc62                	sw	s8,56(sp)
    11e2:	00400003          	lb	zero,4(zero) # 4 <_tdata_begin+0x4>
    11e6:	0000                	unimp
    11e8:	5800                	lw	s0,48(s0)
    11ea:	0000                	unimp
    11ec:	0000                	unimp
    11ee:	0000                	unimp
    11f0:	0100                	addi	s0,sp,128
    11f2:	8b9c                	0x8b9c
    11f4:	0012                	c.slli	zero,0x4
    11f6:	4600                	lw	s0,8(a2)
    11f8:	00727473          	csrrci	s0,0x7,4
    11fc:	6201                	0x6201
    11fe:	0582                	c.slli64	a1
    1200:	0000                	unimp
    1202:	0289                	addi	t0,t0,2
    1204:	0000                	unimp
    1206:	6c49                	lui	s8,0x12
    1208:	6e65                	lui	t3,0x19
    120a:	0100                	addi	s0,sp,128
    120c:	00005463          	blez	zero,1214 <_tbss_end+0x11b0>
    1210:	0100                	addi	s0,sp,128
    1212:	355a                	fld	fa0,432(sp)
    1214:	03f0                	addi	a2,sp,460
    1216:	4000                	lw	s0,0(s0)
    1218:	0000                	unimp
    121a:	0000                	unimp
    121c:	0034                	addi	a3,sp,8
    121e:	0000                	unimp
    1220:	0000                	unimp
    1222:	0000                	unimp
    1224:	1276                	slli	tp,tp,0x3d
    1226:	0000                	unimp
    1228:	6942                	ld	s2,16(sp)
    122a:	0100                	addi	s0,sp,128
    122c:	5466                	lw	s0,120(sp)
    122e:	0000                	unimp
    1230:	fd00                	sd	s0,56(a0)
    1232:	0002                	c.slli64	zero
    1234:	4a00                	lw	s0,16(a2)
    1236:	0410                	addi	a2,sp,512
    1238:	4000                	lw	s0,0(s0)
    123a:	0000                	unimp
    123c:	0000                	unimp
    123e:	0010                	0x10
    1240:	0000                	unimp
    1242:	0000                	unimp
    1244:	0000                	unimp
    1246:	0001014b          	fnmsub.s	ft2,ft2,ft0,ft0,rne
    124a:	0100                	addi	s0,sp,128
    124c:	00005467          	0x5467
    1250:	5700                	lw	s0,40(a4)
    1252:	0012                	c.slli	zero,0x4
    1254:	4c00                	lw	s0,24(s0)
    1256:	4d00                	lw	s0,24(a0)
    1258:	0cdc                	addi	a5,sp,596
    125a:	0000                	unimp
    125c:	0410                	addi	a2,sp,512
    125e:	4000                	lw	s0,0(s0)
    1260:	0000                	unimp
    1262:	0000                	unimp
    1264:	0040                	addi	s0,sp,4
    1266:	0000                	unimp
    1268:	6701                	0x6701
    126a:	e94e                	sd	s3,144(sp)
    126c:	000c                	0xc
    126e:	5300                	lw	s0,32(a4)
    1270:	00000003          	lb	zero,0(zero) # 0 <_tdata_begin>
    1274:	0000                	unimp
    1276:	f02d                	bnez	s0,11d8 <_tbss_end+0x1174>
    1278:	00400003          	lb	zero,4(zero) # 4 <_tdata_begin+0x4>
    127c:	0000                	unimp
    127e:	4f00                	lw	s0,24(a4)
    1280:	2b000013          	li	zero,688
    1284:	5a01                	li	s4,-32
    1286:	7802                	ld	a6,32(sp)
    1288:	0000                	unimp
    128a:	4500                	lw	s0,8(a0)
    128c:	00000463          	beqz	zero,1294 <_tbss_end+0x1230>
    1290:	5701                	li	a4,-32
    1292:	0582                	c.slli64	a1
    1294:	0000                	unimp
    1296:	039c                	addi	a5,sp,448
    1298:	4000                	lw	s0,0(s0)
    129a:	0000                	unimp
    129c:	0000                	unimp
    129e:	0040                	addi	s0,sp,4
    12a0:	0000                	unimp
    12a2:	0000                	unimp
    12a4:	0000                	unimp
    12a6:	9c01                	subw	s0,s0,s0
    12a8:	12f2                	slli	t0,t0,0x3c
    12aa:	0000                	unimp
    12ac:	6146                	ld	sp,80(sp)
    12ae:	0100                	addi	s0,sp,128
    12b0:	0008d557          	0x8d557
    12b4:	7600                	ld	s0,40(a2)
    12b6:	4f000003          	lb	zero,1264(zero) # 4f0 <_tbss_end+0x48c>
    12ba:	7562                	ld	a0,56(sp)
    12bc:	0066                	c.slli	zero,0x19
    12be:	5701                	li	a4,-32
    12c0:	0582                	c.slli64	a1
    12c2:	0000                	unimp
    12c4:	5b01                	li	s6,-32
    12c6:	6c3d                	lui	s8,0xf
    12c8:	6e65                	lui	t3,0x19
    12ca:	0100                	addi	s0,sp,128
    12cc:	d558                	sw	a4,44(a0)
    12ce:	0008                	0x8
    12d0:	0800                	addi	s0,sp,16
    12d2:	a44a                	fsd	fs2,8(sp)
    12d4:	00400003          	lb	zero,4(zero) # 4 <_tdata_begin+0x4>
    12d8:	0000                	unimp
    12da:	2c00                	fld	fs0,24(s0)
    12dc:	0000                	unimp
    12de:	0000                	unimp
    12e0:	0000                	unimp
    12e2:	4200                	lw	s0,0(a2)
    12e4:	0069                	c.nop	26
    12e6:	5a01                	li	s4,-32
    12e8:	0054                	addi	a3,sp,4
    12ea:	0000                	unimp
    12ec:	000003af          	0x3af
    12f0:	0000                	unimp
    12f2:	493a                	lw	s2,140(sp)
    12f4:	0001                	nop
    12f6:	0100                	addi	s0,sp,128
    12f8:	884d                	andi	s0,s0,19
    12fa:	0005                	c.nop	1
    12fc:	7800                	ld	s0,48(s0)
    12fe:	00400003          	lb	zero,4(zero) # 4 <_tdata_begin+0x4>
    1302:	0000                	unimp
    1304:	2400                	fld	fs0,8(s0)
    1306:	0000                	unimp
    1308:	0000                	unimp
    130a:	0000                	unimp
    130c:	0100                	addi	s0,sp,128
    130e:	239c                	fld	fa5,0(a5)
    1310:	47000013          	li	zero,1136
    1314:	052e                	slli	a0,a0,0xb
    1316:	0000                	unimp
    1318:	4e01                	li	t3,0
    131a:	08d5                	addi	a7,a7,21
    131c:	0000                	unimp
    131e:	000003d3          	fadd.s	ft7,ft0,ft0,rne
    1322:	4800                	lw	s0,16(s0)
    1324:	0324                	addi	s1,sp,392
    1326:	0000                	unimp
    1328:	4801                	li	a6,0
    132a:	035c                	addi	a5,sp,388
    132c:	4000                	lw	s0,0(s0)
    132e:	0000                	unimp
    1330:	0000                	unimp
    1332:	001c                	0x1c
    1334:	0000                	unimp
    1336:	0000                	unimp
    1338:	0000                	unimp
    133a:	9c01                	subw	s0,s0,s0
    133c:	0000134f          	fnmadd.s	ft6,ft0,ft0,ft0,rtz
    1340:	6346                	ld	t1,80(sp)
    1342:	0068                	addi	a0,sp,12
    1344:	4801                	li	a6,0
    1346:	0588                	addi	a0,sp,704
    1348:	0000                	unimp
    134a:	03f6                	slli	t2,t2,0x1d
    134c:	0000                	unimp
    134e:	4500                	lw	s0,8(a0)
    1350:	0030                	addi	a2,sp,8
    1352:	0000                	unimp
    1354:	250a                	fld	fa0,128(sp)
    1356:	0086                	slli	ra,ra,0x1
    1358:	0000                	unimp
    135a:	0334                	addi	a3,sp,392
    135c:	4000                	lw	s0,0(s0)
    135e:	0000                	unimp
    1360:	0000                	unimp
    1362:	0028                	addi	a0,sp,8
    1364:	0000                	unimp
    1366:	0000                	unimp
    1368:	0000                	unimp
    136a:	9c01                	subw	s0,s0,s0
    136c:	0000138b          	0x138b
    1370:	7346                	ld	t1,112(sp)
    1372:	0100                	addi	s0,sp,128
    1374:	b840                	fsd	fs0,176(s0)
    1376:	0005                	c.nop	1
    1378:	2f00                	fld	fs0,24(a4)
    137a:	0004                	0x4
    137c:	4200                	lw	s0,0(a2)
    137e:	0070                	addi	a2,sp,12
    1380:	4201                	li	tp,0
    1382:	05b8                	addi	a4,sp,712
    1384:	0000                	unimp
    1386:	0000047b          	0x47b
    138a:	5000                	lw	s0,32(s0)
    138c:	00000793          	li	a5,0
    1390:	1801                	addi	a6,a6,-32
    1392:	0054                	addi	a3,sp,4
    1394:	0000                	unimp
    1396:	02c4                	addi	s1,sp,324
    1398:	4000                	lw	s0,0(s0)
    139a:	0000                	unimp
    139c:	0000                	unimp
    139e:	0070                	addi	a2,sp,12
    13a0:	0000                	unimp
    13a2:	0000                	unimp
    13a4:	0000                	unimp
    13a6:	9c01                	subw	s0,s0,s0
    13a8:	7848                	ld	a0,176(s0)
    13aa:	01000003          	lb	zero,16(zero) # 10 <_tdata_begin+0x10>
    13ae:	9410                	0x9410
    13b0:	0002                	c.slli64	zero
    13b2:	0040                	addi	s0,sp,4
    13b4:	0000                	unimp
    13b6:	3000                	fld	fs0,32(s0)
    13b8:	0000                	unimp
    13ba:	0000                	unimp
    13bc:	0000                	unimp
    13be:	0100                	addi	s0,sp,128
    13c0:	039c                	addi	a5,sp,448
    13c2:	0014                	0x14
    13c4:	4f00                	lw	s0,24(a4)
    13c6:	0061                	c.nop	24
    13c8:	1001                	c.nop	-32
    13ca:	08d5                	addi	a7,a7,21
    13cc:	0000                	unimp
    13ce:	5a01                	li	s4,-32
    13d0:	0051                	c.nop	20
    13d2:	0000                	unimp
    13d4:	4200                	lw	s0,0(a2)
    13d6:	0069                	c.nop	26
    13d8:	1101                	addi	sp,sp,-32
    13da:	08d5                	addi	a7,a7,21
    13dc:	0000                	unimp
    13de:	04c4                	addi	s1,sp,580
    13e0:	0000                	unimp
    13e2:	a84a                	fsd	fs2,16(sp)
    13e4:	0002                	c.slli64	zero
    13e6:	0040                	addi	s0,sp,4
    13e8:	0000                	unimp
    13ea:	0c00                	addi	s0,sp,528
    13ec:	0000                	unimp
    13ee:	0000                	unimp
    13f0:	0000                	unimp
    13f2:	4200                	lw	s0,0(a2)
    13f4:	006a                	c.slli	zero,0x1a
    13f6:	1201                	addi	tp,tp,-32
    13f8:	08d5                	addi	a7,a7,21
    13fa:	0000                	unimp
    13fc:	0000050f          	0x50f
    1400:	0000                	unimp
    1402:	4800                	lw	s0,16(s0)
    1404:	035e                	slli	t1,t1,0x17
    1406:	0000                	unimp
    1408:	0801                	addi	a6,a6,0
    140a:	027c                	addi	a5,sp,268
    140c:	4000                	lw	s0,0(s0)
    140e:	0000                	unimp
    1410:	0000                	unimp
    1412:	0018                	0x18
    1414:	0000                	unimp
    1416:	0000                	unimp
    1418:	0000                	unimp
    141a:	9c01                	subw	s0,s0,s0
    141c:	0000144b          	fnmsub.s	fs0,ft0,ft0,ft0,rtz
    1420:	0100614f          	fnmadd.s	ft2,ft0,fa6,ft0,unknown
    1424:	5408                	lw	a0,40(s0)
    1426:	0000                	unimp
    1428:	0100                	addi	s0,sp,128
    142a:	4a5a                	lw	s4,148(sp)
    142c:	027c                	addi	a5,sp,268
    142e:	4000                	lw	s0,0(s0)
    1430:	0000                	unimp
    1432:	0000                	unimp
    1434:	0014                	0x14
    1436:	0000                	unimp
    1438:	0000                	unimp
    143a:	0000                	unimp
    143c:	6942                	ld	s2,16(sp)
    143e:	0100                	addi	s0,sp,128
    1440:	5409                	li	s0,-30
    1442:	0000                	unimp
    1444:	6500                	ld	s0,8(a0)
    1446:	0005                	c.nop	1
    1448:	0000                	unimp
    144a:	5200                	lw	s0,32(a2)
    144c:	0000113f 400004cc 	0x400004cc0000113f
    1454:	0000                	unimp
    1456:	0000                	unimp
    1458:	0014                	0x14
    145a:	0000                	unimp
    145c:	0000                	unimp
    145e:	0000                	unimp
    1460:	9c01                	subw	s0,s0,s0
    1462:	00001477          	0x1477
    1466:	4f4e                	lw	t5,208(sp)
    1468:	0011                	c.nop	4
    146a:	9c00                	0x9c00
    146c:	0005                	c.nop	1
    146e:	5300                	lw	s0,32(a4)
    1470:	1158                	addi	a4,sp,164
    1472:	0000                	unimp
    1474:	5b01                	li	s6,-32
    1476:	5400                	lw	s0,40(s0)
    1478:	0cdc                	addi	a5,sp,596
    147a:	0000                	unimp
    147c:	07ac                	addi	a1,sp,968
    147e:	4000                	lw	s0,0(s0)
    1480:	0000                	unimp
    1482:	0000                	unimp
    1484:	000c                	0xc
    1486:	0000                	unimp
    1488:	0000                	unimp
    148a:	0000                	unimp
    148c:	9c01                	subw	s0,s0,s0
    148e:	000ce953          	fadd.s	fs2,fs9,ft0,unknown
    1492:	0100                	addi	s0,sp,128
    1494:	005a                	c.slli	zero,0x16
    1496:	2a00                	fld	fs0,16(a2)
    1498:	0000                	unimp
    149a:	0200                	addi	s0,sp,256
    149c:	a800                	fsd	fs0,16(s0)
    149e:	0004                	0x4
    14a0:	0800                	addi	s0,sp,16
    14a2:	2f01                	sext.w	t5,t5
    14a4:	0006                	c.slli	zero,0x1
    14a6:	0000                	unimp
    14a8:	0000                	unimp
    14aa:	0040                	addi	s0,sp,4
    14ac:	0000                	unimp
    14ae:	7c00                	ld	s0,56(s0)
    14b0:	0002                	c.slli64	zero
    14b2:	0040                	addi	s0,sp,4
    14b4:	0000                	unimp
    14b6:	b100                	fsd	fs0,32(a0)
    14b8:	0008                	0x8
    14ba:	0d00                	addi	s0,sp,656
    14bc:	0004                	0x4
    14be:	be00                	fsd	fs0,56(a2)
    14c0:	0008                	0x8
    14c2:	0100                	addi	s0,sp,128
    14c4:	80              	Address 0x00000000000014c4 is out of bounds.


Disassembly of section .debug_abbrev:

0000000000000000 <.debug_abbrev>:
   0:	1101                	addi	sp,sp,-32
   2:	2501                	sext.w	a0,a0
   4:	130e                	slli	t1,t1,0x23
   6:	1b0e030b          	0x1b0e030b
   a:	110e                	slli	sp,sp,0x23
   c:	1201                	addi	tp,tp,-32
   e:	00171007          	0x171007
  12:	0200                	addi	s0,sp,256
  14:	0024                	addi	s1,sp,8
  16:	0b3e0b0b          	0xb3e0b0b
  1a:	00000e03          	lb	t3,0(zero) # 0 <_tdata_begin>
  1e:	03001603          	lh	a2,48(zero) # 30 <_tdata_begin+0x30>
  22:	3a0e                	fld	fs4,224(sp)
  24:	490b3b0b          	0x490b3b0b
  28:	04000013          	li	zero,64
  2c:	0024                	addi	s1,sp,8
  2e:	0b3e0b0b          	0xb3e0b0b
  32:	00000803          	lb	a6,0(zero) # 0 <_tdata_begin>
  36:	1605                	addi	a2,a2,-31
  38:	0300                	addi	s0,sp,384
  3a:	3a0e                	fld	fs4,224(sp)
  3c:	49053b0b          	0x49053b0b
  40:	06000013          	li	zero,96
  44:	0b0b0117          	auipc	sp,0xb0b0
  48:	0b3a                	slli	s6,s6,0xe
  4a:	13010b3b          	0x13010b3b
  4e:	0000                	unimp
  50:	03000d07          	0x3000d07
  54:	3a0e                	fld	fs4,224(sp)
  56:	490b3b0b          	0x490b3b0b
  5a:	08000013          	li	zero,128
  5e:	0101                	addi	sp,sp,0
  60:	1349                	addi	t1,t1,-14
  62:	1301                	addi	t1,t1,-32
  64:	0000                	unimp
  66:	2109                	addiw	sp,sp,2
  68:	4900                	lw	s0,16(a0)
  6a:	000b2f13          	slti	t5,s6,0
  6e:	0a00                	addi	s0,sp,272
  70:	0b0b0113          	addi	sp,s6,176
  74:	0b3a                	slli	s6,s6,0xe
  76:	13010b3b          	0x13010b3b
  7a:	0000                	unimp
  7c:	03000d0b          	0x3000d0b
  80:	3a0e                	fld	fs4,224(sp)
  82:	490b3b0b          	0x490b3b0b
  86:	000b3813          	sltiu	a6,s6,0
  8a:	0c00                	addi	s0,sp,528
  8c:	0b0b000f          	0xb0b000f
  90:	0000                	unimp
  92:	130d                	addi	t1,t1,-29
  94:	0301                	addi	t1,t1,0
  96:	0b0e                	slli	s6,s6,0x3
  98:	3b0b3a0b          	0x3b0b3a0b
  9c:	0013010b          	0x13010b
  a0:	0e00                	addi	s0,sp,784
  a2:	000d                	c.nop	3
  a4:	0b3a0803          	lb	a6,179(s4)
  a8:	13490b3b          	0x13490b3b
  ac:	0b38                	addi	a4,sp,408
  ae:	0000                	unimp
  b0:	0b000f0f          	0xb000f0f
  b4:	0013490b          	0x13490b
  b8:	1000                	addi	s0,sp,32
  ba:	0e030113          	addi	sp,t1,224
  be:	0b3a050b          	0xb3a050b
  c2:	13010b3b          	0x13010b3b
  c6:	0000                	unimp
  c8:	0d11                	addi	s10,s10,4
  ca:	0300                	addi	s0,sp,384
  cc:	3a0e                	fld	fs4,224(sp)
  ce:	490b3b0b          	0x490b3b0b
  d2:	00053813          	sltiu	a6,a0,0
  d6:	1200                	addi	s0,sp,288
  d8:	0015                	c.nop	5
  da:	00001927          	0x1927
  de:	27011513          	0x27011513
  e2:	4919                	li	s2,6
  e4:	00130113          	addi	sp,t1,1
  e8:	1400                	addi	s0,sp,544
  ea:	0005                	c.nop	1
  ec:	1349                	addi	t1,t1,-14
  ee:	0000                	unimp
  f0:	2615                	addiw	a2,a2,5
  f2:	4900                	lw	s0,16(a0)
  f4:	16000013          	li	zero,352
  f8:	0e030113          	addi	sp,t1,224
  fc:	0b3a050b          	0xb3a050b
 100:	1301053b          	0x1301053b
 104:	0000                	unimp
 106:	03000d17          	auipc	s10,0x3000
 10a:	3a0e                	fld	fs4,224(sp)
 10c:	49053b0b          	0x49053b0b
 110:	000b3813          	sltiu	a6,s6,0
 114:	1800                	addi	s0,sp,48
 116:	000d                	c.nop	3
 118:	0b3a0e03          	lb	t3,179(s4)
 11c:	1349053b          	0x1349053b
 120:	0538                	addi	a4,sp,648
 122:	0000                	unimp
 124:	1319                	addi	t1,t1,-26
 126:	0301                	addi	t1,t1,0
 128:	0b0e                	slli	s6,s6,0x3
 12a:	3b0b3a0b          	0x3b0b3a0b
 12e:	0105                	addi	sp,sp,1
 130:	1a000013          	li	zero,416
 134:	0b0b0113          	addi	sp,s6,176
 138:	0b3a                	slli	s6,s6,0xe
 13a:	1301053b          	0x1301053b
 13e:	0000                	unimp
 140:	0b01131b          	0xb01131b
 144:	3a05                	addiw	s4,s4,-31
 146:	01053b0b          	0x1053b0b
 14a:	1c000013          	li	zero,448
 14e:	050b0117          	auipc	sp,0x50b0
 152:	0b3a                	slli	s6,s6,0xe
 154:	1301053b          	0x1301053b
 158:	0000                	unimp
 15a:	0d1d                	addi	s10,s10,7
 15c:	0300                	addi	s0,sp,384
 15e:	3a0e                	fld	fs4,224(sp)
 160:	49053b0b          	0x49053b0b
 164:	1e000013          	li	zero,480
 168:	0e030013          	addi	zero,t1,224
 16c:	193c                	addi	a5,sp,184
 16e:	0000                	unimp
 170:	151f 2701 0119      	0x1192701151f
 176:	20000013          	li	zero,512
 17a:	0034                	addi	a3,sp,8
 17c:	0b3a0e03          	lb	t3,179(s4)
 180:	1349053b          	0x1349053b
 184:	193c193f 34210000 	0x34210000193c193f
 18c:	0300                	addi	s0,sp,384
 18e:	3a0e                	fld	fs4,224(sp)
 190:	490b3b0b          	0x490b3b0b
 194:	3c193f13          	sltiu	t5,s2,961
 198:	0019                	c.nop	6
 19a:	2200                	fld	fs0,0(a2)
 19c:	0104                	addi	s1,sp,128
 19e:	0b3e0e03          	lb	t3,179(t3) # 190b3 <_tbss_end+0x1904f>
 1a2:	13490b0b          	0x13490b0b
 1a6:	0b3a                	slli	s6,s6,0xe
 1a8:	1301053b          	0x1301053b
 1ac:	0000                	unimp
 1ae:	03002823          	sw	a6,48(zero) # 30 <_tdata_begin+0x30>
 1b2:	1c0e                	slli	s8,s8,0x23
 1b4:	000d                	c.nop	3
 1b6:	2400                	fld	fs0,8(s0)
 1b8:	0028                	addi	a0,sp,8
 1ba:	0b1c0e03          	lb	t3,177(s8) # f0b1 <_tbss_end+0xf04d>
 1be:	0000                	unimp
 1c0:	3425                	addiw	s0,s0,-23
 1c2:	0300                	addi	s0,sp,384
 1c4:	3a0e                	fld	fs4,224(sp)
 1c6:	490b3b0b          	0x490b3b0b
 1ca:	02193f13          	sltiu	t5,s2,33
 1ce:	0018                	0x18
 1d0:	2600                	fld	fs0,8(a2)
 1d2:	0034                	addi	a3,sp,8
 1d4:	0b3a0e03          	lb	t3,179(s4)
 1d8:	13490b3b          	0x13490b3b
 1dc:	0000193f 3f012e27 	0x3f012e270000193f
 1e4:	0319                	addi	t1,t1,6
 1e6:	3a0e                	fld	fs4,224(sp)
 1e8:	27053b0b          	0x27053b0b
 1ec:	4919                	li	s2,6
 1ee:	12011113          	0x12011113
 1f2:	97184007          	flq	ft0,-1679(a6) # 3a10b <_tbss_end+0x3a0a7>
 1f6:	1942                	slli	s2,s2,0x30
 1f8:	1301                	addi	t1,t1,-32
 1fa:	0000                	unimp
 1fc:	0528                	addi	a0,sp,648
 1fe:	0300                	addi	s0,sp,384
 200:	3a0e                	fld	fs4,224(sp)
 202:	49053b0b          	0x49053b0b
 206:	00170213          	addi	tp,a4,1 # fffffffffffef001 <_end+0xffffffffbffee5c9>
 20a:	2900                	fld	fs0,16(a0)
 20c:	0005                	c.nop	1
 20e:	0b3a0803          	lb	a6,179(s4)
 212:	1349053b          	0x1349053b
 216:	1702                	slli	a4,a4,0x20
 218:	0000                	unimp
 21a:	892a                	mv	s2,a0
 21c:	0182                	c.slli64	gp
 21e:	1101                	addi	sp,sp,-32
 220:	3101                	addiw	sp,sp,-32
 222:	00130113          	addi	sp,t1,1
 226:	2b00                	fld	fs0,16(a4)
 228:	828a                	mv	t0,sp
 22a:	0001                	nop
 22c:	1802                	slli	a6,a6,0x20
 22e:	4291                	li	t0,4
 230:	0018                	0x18
 232:	2c00                	fld	fs0,24(s0)
 234:	8289                	srli	a3,a3,0x2
 236:	0001                	nop
 238:	0111                	addi	sp,sp,4
 23a:	1331                	addi	t1,t1,-20
 23c:	0000                	unimp
 23e:	892d                	andi	a0,a0,11
 240:	0182                	c.slli64	gp
 242:	1101                	addi	sp,sp,-32
 244:	3101                	addiw	sp,sp,-32
 246:	2e000013          	li	zero,736
 24a:	012e                	slli	sp,sp,0xb
 24c:	0e03193f 053b0b3a 	0x53b0b3a0e03193f
 254:	1349                	addi	t1,t1,-14
 256:	0111                	addi	sp,sp,4
 258:	0712                	slli	a4,a4,0x4
 25a:	1840                	addi	s0,sp,52
 25c:	01194297          	auipc	t0,0x1194
 260:	2f000013          	li	zero,752
 264:	0034                	addi	a3,sp,8
 266:	0b3a0e03          	lb	t3,179(s4)
 26a:	1349053b          	0x1349053b
 26e:	1802                	slli	a6,a6,0x20
 270:	0000                	unimp
 272:	3430                	fld	fa2,104(s0)
 274:	0300                	addi	s0,sp,384
 276:	3a0e                	fld	fs4,224(sp)
 278:	49053b0b          	0x49053b0b
 27c:	31000013          	li	zero,784
 280:	1301010b          	0x1301010b
 284:	0000                	unimp
 286:	3432                	fld	fs0,296(sp)
 288:	0300                	addi	s0,sp,384
 28a:	3a08                	fld	fa0,48(a2)
 28c:	49053b0b          	0x49053b0b
 290:	33000013          	li	zero,816
 294:	0000010b          	0x10b
 298:	2e34                	fld	fa3,88(a2)
 29a:	3f01                	addiw	t5,t5,-32
 29c:	0319                	addi	t1,t1,6
 29e:	3a0e                	fld	fs4,224(sp)
 2a0:	11053b0b          	0x11053b0b
 2a4:	1201                	addi	tp,tp,-32
 2a6:	97184007          	flq	ft0,-1679(a6)
 2aa:	1942                	slli	s2,s2,0x30
 2ac:	1301                	addi	t1,t1,-32
 2ae:	0000                	unimp
 2b0:	0b35                	addi	s6,s6,13
 2b2:	1101                	addi	sp,sp,-32
 2b4:	1201                	addi	tp,tp,-32
 2b6:	00130107          	0x130107
 2ba:	3600                	fld	fs0,40(a2)
 2bc:	0034                	addi	a3,sp,8
 2be:	0b3a0e03          	lb	t3,179(s4)
 2c2:	1349053b          	0x1349053b
 2c6:	1702                	slli	a4,a4,0x20
 2c8:	0000                	unimp
 2ca:	3f002e37          	lui	t3,0x3f002
 2ce:	0319                	addi	t1,t1,6
 2d0:	3a0e                	fld	fs4,224(sp)
 2d2:	11053b0b          	0x11053b0b
 2d6:	1201                	addi	tp,tp,-32
 2d8:	97184007          	flq	ft0,-1679(a6)
 2dc:	1942                	slli	s2,s2,0x30
 2de:	0000                	unimp
 2e0:	2e38                	fld	fa4,88(a2)
 2e2:	3f01                	addiw	t5,t5,-32
 2e4:	0319                	addi	t1,t1,6
 2e6:	3a0e                	fld	fs4,224(sp)
 2e8:	27053b0b          	0x27053b0b
 2ec:	2019                	0x2019
 2ee:	0013010b          	0x13010b
 2f2:	3900                	fld	fs0,48(a0)
 2f4:	0005                	c.nop	1
 2f6:	0b3a0803          	lb	a6,179(s4)
 2fa:	1349053b          	0x1349053b
 2fe:	0000                	unimp
 300:	2e3a                	fld	ft8,392(sp)
 302:	3f01                	addiw	t5,t5,-32
 304:	0319                	addi	t1,t1,6
 306:	3a0e                	fld	fs4,224(sp)
 308:	490b3b0b          	0x490b3b0b
 30c:	12011113          	0x12011113
 310:	97184007          	flq	ft0,-1679(a6)
 314:	1942                	slli	s2,s2,0x30
 316:	1301                	addi	t1,t1,-32
 318:	0000                	unimp
 31a:	0300343b          	0x300343b
 31e:	3a0e                	fld	fs4,224(sp)
 320:	490b3b0b          	0x490b3b0b
 324:	000b1c13          	slli	s8,s6,0x0
 328:	3c00                	fld	fs0,56(s0)
 32a:	0034                	addi	a3,sp,8
 32c:	0b3a0803          	lb	a6,179(s4)
 330:	13490b3b          	0x13490b3b
 334:	051c                	addi	a5,sp,640
 336:	0000                	unimp
 338:	343d                	addiw	s0,s0,-17
 33a:	0300                	addi	s0,sp,384
 33c:	3a08                	fld	fa0,48(a2)
 33e:	490b3b0b          	0x490b3b0b
 342:	000b1c13          	slli	s8,s6,0x0
 346:	3e00                	fld	fs0,56(a2)
 348:	0034                	addi	a3,sp,8
 34a:	0b3a0e03          	lb	t3,179(s4)
 34e:	13490b3b          	0x13490b3b
 352:	051c                	addi	a5,sp,640
 354:	0000                	unimp
 356:	0300343f 3b0b3a0e 	0x3b0b3a0e0300343f
 35e:	0013490b          	0x13490b
 362:	4000                	lw	s0,0(s0)
 364:	0034                	addi	a3,sp,8
 366:	0b3a0e03          	lb	t3,179(s4)
 36a:	1349053b          	0x1349053b
 36e:	0b1c                	addi	a5,sp,400
 370:	0000                	unimp
 372:	3441                	addiw	s0,s0,-16
 374:	0300                	addi	s0,sp,384
 376:	3a0e                	fld	fs4,224(sp)
 378:	49053b0b          	0x49053b0b
 37c:	00051c13          	slli	s8,a0,0x0
 380:	4200                	lw	s0,0(a2)
 382:	0034                	addi	a3,sp,8
 384:	0b3a0803          	lb	a6,179(s4)
 388:	13490b3b          	0x13490b3b
 38c:	1702                	slli	a4,a4,0x20
 38e:	0000                	unimp
 390:	3f012e43          	fmadd.q	ft8,ft2,fa6,ft7,rdn
 394:	0319                	addi	t1,t1,6
 396:	3a0e                	fld	fs4,224(sp)
 398:	270b3b0b          	0x270b3b0b
 39c:	4919                	li	s2,6
 39e:	010b2013          	slti	zero,s6,16
 3a2:	44000013          	li	zero,1088
 3a6:	0005                	c.nop	1
 3a8:	0b3a0803          	lb	a6,179(s4)
 3ac:	13490b3b          	0x13490b3b
 3b0:	0000                	unimp
 3b2:	2e45                	addiw	t3,t3,17
 3b4:	3f01                	addiw	t5,t5,-32
 3b6:	0319                	addi	t1,t1,6
 3b8:	3a0e                	fld	fs4,224(sp)
 3ba:	270b3b0b          	0x270b3b0b
 3be:	4919                	li	s2,6
 3c0:	12011113          	0x12011113
 3c4:	97184007          	flq	ft0,-1679(a6)
 3c8:	1942                	slli	s2,s2,0x30
 3ca:	1301                	addi	t1,t1,-32
 3cc:	0000                	unimp
 3ce:	0546                	slli	a0,a0,0x11
 3d0:	0300                	addi	s0,sp,384
 3d2:	3a08                	fld	fa0,48(a2)
 3d4:	490b3b0b          	0x490b3b0b
 3d8:	00170213          	addi	tp,a4,1
 3dc:	4700                	lw	s0,8(a4)
 3de:	0034                	addi	a3,sp,8
 3e0:	0b3a0e03          	lb	t3,179(s4)
 3e4:	13490b3b          	0x13490b3b
 3e8:	1702                	slli	a4,a4,0x20
 3ea:	0000                	unimp
 3ec:	2e48                	fld	fa0,152(a2)
 3ee:	3f01                	addiw	t5,t5,-32
 3f0:	0319                	addi	t1,t1,6
 3f2:	3a0e                	fld	fs4,224(sp)
 3f4:	270b3b0b          	0x270b3b0b
 3f8:	1119                	addi	sp,sp,-26
 3fa:	1201                	addi	tp,tp,-32
 3fc:	97184007          	flq	ft0,-1679(a6)
 400:	1942                	slli	s2,s2,0x30
 402:	1301                	addi	t1,t1,-32
 404:	0000                	unimp
 406:	3449                	addiw	s0,s0,-14
 408:	0300                	addi	s0,sp,384
 40a:	3a08                	fld	fa0,48(a2)
 40c:	490b3b0b          	0x490b3b0b
 410:	00180213          	addi	tp,a6,1
 414:	4a00                	lw	s0,16(a2)
 416:	0111010b          	0x111010b
 41a:	0712                	slli	a4,a4,0x4
 41c:	0000                	unimp
 41e:	3f012e4b          	fnmsub.q	ft8,ft2,fa6,ft7,rdn
 422:	0319                	addi	t1,t1,6
 424:	3a0e                	fld	fs4,224(sp)
 426:	490b3b0b          	0x490b3b0b
 42a:	01193c13          	sltiu	s8,s2,17
 42e:	4c000013          	li	zero,1216
 432:	0018                	0x18
 434:	0000                	unimp
 436:	1d4d                	addi	s10,s10,-13
 438:	3101                	addiw	sp,sp,-32
 43a:	55015213          	0x55015213
 43e:	590b5817          	auipc	a6,0x590b5
 442:	4e00000b          	0x4e00000b
 446:	0005                	c.nop	1
 448:	1331                	addi	t1,t1,-20
 44a:	1702                	slli	a4,a4,0x20
 44c:	0000                	unimp
 44e:	0300054f          	fnmadd.d	fa0,ft0,fa6,ft0,rne
 452:	3a08                	fld	fa0,48(a2)
 454:	490b3b0b          	0x490b3b0b
 458:	00180213          	addi	tp,a6,1 # 590b543f <_end+0x190b4a07>
 45c:	5000                	lw	s0,32(s0)
 45e:	002e                	c.slli	zero,0xb
 460:	0e03193f 0b3b0b3a 	0xb3b0b3a0e03193f
 468:	1349                	addi	t1,t1,-14
 46a:	0111                	addi	sp,sp,4
 46c:	0712                	slli	a4,a4,0x4
 46e:	1840                	addi	s0,sp,52
 470:	00194297          	auipc	t0,0x194
 474:	5100                	lw	s0,32(a0)
 476:	1755010b          	0x1755010b
 47a:	0000                	unimp
 47c:	2e52                	fld	ft8,272(sp)
 47e:	3101                	addiw	sp,sp,-32
 480:	12011113          	0x12011113
 484:	97184007          	flq	ft0,-1679(a6)
 488:	1942                	slli	s2,s2,0x30
 48a:	1301                	addi	t1,t1,-32
 48c:	0000                	unimp
 48e:	31000553          	0x31000553
 492:	00180213          	addi	tp,a6,1
 496:	5400                	lw	s0,40(s0)
 498:	012e                	slli	sp,sp,0xb
 49a:	1331                	addi	t1,t1,-20
 49c:	0111                	addi	sp,sp,4
 49e:	0712                	slli	a4,a4,0x4
 4a0:	1840                	addi	s0,sp,52
 4a2:	00194297          	auipc	t0,0x194
 4a6:	0000                	unimp
 4a8:	1101                	addi	sp,sp,-32
 4aa:	1000                	addi	s0,sp,32
 4ac:	1106                	slli	sp,sp,0x21
 4ae:	1201                	addi	tp,tp,-32
 4b0:	0301                	addi	t1,t1,0
 4b2:	1b0e                	slli	s6,s6,0x23
 4b4:	250e                	fld	fa0,192(sp)
 4b6:	130e                	slli	t1,t1,0x23
 4b8:	0005                	c.nop	1
 4ba:	0000                	unimp

Disassembly of section .debug_loc:

0000000000000000 <.debug_loc>:
   0:	05e0                	addi	s0,sp,716
   2:	0000                	unimp
   4:	0000                	unimp
   6:	0000                	unimp
   8:	0604                	addi	s1,sp,768
   a:	0000                	unimp
   c:	0000                	unimp
   e:	0000                	unimp
  10:	0001                	nop
  12:	045a                	slli	s0,s0,0x16
  14:	0006                	c.slli	zero,0x1
  16:	0000                	unimp
  18:	0000                	unimp
  1a:	6000                	ld	s0,0(s0)
  1c:	0006                	c.slli	zero,0x1
  1e:	0000                	unimp
  20:	0000                	unimp
  22:	0100                	addi	s0,sp,128
  24:	6200                	ld	s0,0(a2)
  26:	0660                	addi	s0,sp,780
  28:	0000                	unimp
  2a:	0000                	unimp
  2c:	0000                	unimp
  2e:	0668                	addi	a0,sp,780
  30:	0000                	unimp
  32:	0000                	unimp
  34:	0000                	unimp
  36:	0004                	0x4
  38:	9f5a01f3          	0x9f5a01f3
  3c:	0000                	unimp
  3e:	0000                	unimp
  40:	0000                	unimp
  42:	0000                	unimp
  44:	0000                	unimp
  46:	0000                	unimp
  48:	0000                	unimp
  4a:	0000                	unimp
  4c:	05e0                	addi	s0,sp,716
  4e:	0000                	unimp
  50:	0000                	unimp
  52:	0000                	unimp
  54:	00000607          	0x607
  58:	0000                	unimp
  5a:	0000                	unimp
  5c:	0001                	nop
  5e:	0006075b          	0x6075b
  62:	0000                	unimp
  64:	0000                	unimp
  66:	5c00                	lw	s0,56(s0)
  68:	0006                	c.slli	zero,0x1
  6a:	0000                	unimp
  6c:	0000                	unimp
  6e:	0100                	addi	s0,sp,128
  70:	5900                	lw	s0,48(a0)
  72:	065c                	addi	a5,sp,772
  74:	0000                	unimp
  76:	0000                	unimp
  78:	0000                	unimp
  7a:	0668                	addi	a0,sp,780
  7c:	0000                	unimp
  7e:	0000                	unimp
  80:	0000                	unimp
  82:	0001                	nop
  84:	005a                	c.slli	zero,0x16
  86:	0000                	unimp
  88:	0000                	unimp
  8a:	0000                	unimp
  8c:	0000                	unimp
  8e:	0000                	unimp
  90:	0000                	unimp
  92:	0000                	unimp
  94:	e000                	sd	s0,0(s0)
  96:	0005                	c.nop	1
  98:	0000                	unimp
  9a:	0000                	unimp
  9c:	0700                	addi	s0,sp,896
  9e:	0006                	c.slli	zero,0x1
  a0:	0000                	unimp
  a2:	0000                	unimp
  a4:	0100                	addi	s0,sp,128
  a6:	5c00                	lw	s0,56(s0)
  a8:	00000607          	0x607
  ac:	0000                	unimp
  ae:	0000                	unimp
  b0:	0668                	addi	a0,sp,780
  b2:	0000                	unimp
  b4:	0000                	unimp
  b6:	0000                	unimp
  b8:	0004                	0x4
  ba:	9f5c01f3          	0x9f5c01f3
  be:	0000                	unimp
  c0:	0000                	unimp
  c2:	0000                	unimp
  c4:	0000                	unimp
  c6:	0000                	unimp
  c8:	0000                	unimp
  ca:	0000                	unimp
  cc:	0000                	unimp
  ce:	0574                	addi	a3,sp,652
  d0:	0000                	unimp
  d2:	0000                	unimp
  d4:	0000                	unimp
  d6:	00000587          	0x587
  da:	0000                	unimp
  dc:	0000                	unimp
  de:	0001                	nop
  e0:	005f 0000 0000      	0x5f
  e6:	0000                	unimp
  e8:	0000                	unimp
  ea:	0000                	unimp
  ec:	0000                	unimp
  ee:	0000                	unimp
  f0:	2000                	fld	fs0,0(s0)
  f2:	0004                	0x4
  f4:	0000                	unimp
  f6:	0000                	unimp
  f8:	7000                	ld	s0,32(s0)
  fa:	0004                	0x4
  fc:	0000                	unimp
  fe:	0000                	unimp
 100:	0100                	addi	s0,sp,128
 102:	5900                	lw	s0,48(a0)
 104:	0474                	addi	a3,sp,524
 106:	0000                	unimp
 108:	0000                	unimp
 10a:	0000                	unimp
 10c:	0484                	addi	s1,sp,576
 10e:	0000                	unimp
 110:	0000                	unimp
 112:	0000                	unimp
 114:	0001                	nop
 116:	0059                	c.nop	22
 118:	0000                	unimp
 11a:	0000                	unimp
 11c:	0000                	unimp
 11e:	0000                	unimp
 120:	0000                	unimp
 122:	0000                	unimp
 124:	0000                	unimp
 126:	c000                	sw	s0,0(s0)
 128:	0002                	c.slli64	zero
 12a:	0000                	unimp
 12c:	0000                	unimp
 12e:	ec00                	sd	s0,24(s0)
 130:	0002                	c.slli64	zero
 132:	0000                	unimp
 134:	0000                	unimp
 136:	0200                	addi	s0,sp,256
 138:	3000                	fld	fs0,32(s0)
 13a:	ec9f 0002 0000      	0x2ec9f
 140:	0000                	unimp
 142:	0c00                	addi	s0,sp,528
 144:	00000003          	lb	zero,0(zero) # 0 <_tdata_begin>
 148:	0000                	unimp
 14a:	0200                	addi	s0,sp,256
 14c:	3100                	fld	fs0,32(a0)
 14e:	0c9f 0003 0000      	0x30c9f
 154:	0000                	unimp
 156:	3000                	fld	fs0,32(s0)
 158:	0005                	c.nop	1
 15a:	0000                	unimp
 15c:	0000                	unimp
 15e:	0200                	addi	s0,sp,256
 160:	3200                	fld	fs0,32(a2)
 162:	009f 0000 0000      	0x9f
 168:	0000                	unimp
 16a:	0000                	unimp
 16c:	0000                	unimp
 16e:	0000                	unimp
 170:	0000                	unimp
 172:	b800                	fsd	fs0,48(s0)
 174:	0001                	nop
 176:	0000                	unimp
 178:	0000                	unimp
 17a:	db00                	sw	s0,48(a4)
 17c:	0001                	nop
 17e:	0000                	unimp
 180:	0000                	unimp
 182:	0100                	addi	s0,sp,128
 184:	5a00                	lw	s0,48(a2)
 186:	000001db          	0x1db
 18a:	0000                	unimp
 18c:	0000                	unimp
 18e:	0240                	addi	s0,sp,260
 190:	0000                	unimp
 192:	0000                	unimp
 194:	0000                	unimp
 196:	0001                	nop
 198:	4062                	0x4062
 19a:	0002                	c.slli64	zero
 19c:	0000                	unimp
 19e:	0000                	unimp
 1a0:	5000                	lw	s0,32(s0)
 1a2:	0002                	c.slli64	zero
 1a4:	0000                	unimp
 1a6:	0000                	unimp
 1a8:	0100                	addi	s0,sp,128
 1aa:	5a00                	lw	s0,48(a2)
 1ac:	0000                	unimp
 1ae:	0000                	unimp
 1b0:	0000                	unimp
 1b2:	0000                	unimp
 1b4:	0000                	unimp
 1b6:	0000                	unimp
 1b8:	0000                	unimp
 1ba:	0000                	unimp
 1bc:	01dc                	addi	a5,sp,196
 1be:	0000                	unimp
 1c0:	0000                	unimp
 1c2:	0000                	unimp
 1c4:	000001fb          	0x1fb
 1c8:	0000                	unimp
 1ca:	0000                	unimp
 1cc:	0001                	nop
 1ce:	fc5a                	sd	s6,56(sp)
 1d0:	0001                	nop
 1d2:	0000                	unimp
 1d4:	0000                	unimp
 1d6:	3000                	fld	fs0,32(s0)
 1d8:	0002                	c.slli64	zero
 1da:	0000                	unimp
 1dc:	0000                	unimp
 1de:	0100                	addi	s0,sp,128
 1e0:	5a00                	lw	s0,48(a2)
 1e2:	0000                	unimp
 1e4:	0000                	unimp
 1e6:	0000                	unimp
 1e8:	0000                	unimp
 1ea:	0000                	unimp
 1ec:	0000                	unimp
 1ee:	0000                	unimp
 1f0:	0000                	unimp
 1f2:	01d8                	addi	a4,sp,196
 1f4:	0000                	unimp
 1f6:	0000                	unimp
 1f8:	0000                	unimp
 1fa:	01ec                	addi	a1,sp,204
 1fc:	0000                	unimp
 1fe:	0000                	unimp
 200:	0000                	unimp
 202:	0002                	c.slli64	zero
 204:	9f30                	0x9f30
 206:	01ec                	addi	a1,sp,204
 208:	0000                	unimp
 20a:	0000                	unimp
 20c:	0000                	unimp
 20e:	01f8                	addi	a4,sp,204
 210:	0000                	unimp
 212:	0000                	unimp
 214:	0000                	unimp
 216:	0001                	nop
 218:	1858                	addi	a4,sp,52
 21a:	0002                	c.slli64	zero
 21c:	0000                	unimp
 21e:	0000                	unimp
 220:	1c00                	addi	s0,sp,560
 222:	0002                	c.slli64	zero
 224:	0000                	unimp
 226:	0000                	unimp
 228:	0300                	addi	s0,sp,384
 22a:	7800                	ld	s0,48(s0)
 22c:	9f01                	subw	a4,a4,s0
 22e:	021c                	addi	a5,sp,256
 230:	0000                	unimp
 232:	0000                	unimp
 234:	0000                	unimp
 236:	0220                	addi	s0,sp,264
 238:	0000                	unimp
 23a:	0000                	unimp
 23c:	0000                	unimp
 23e:	0001                	nop
 240:	0058                	addi	a4,sp,4
 242:	0000                	unimp
 244:	0000                	unimp
 246:	0000                	unimp
 248:	0000                	unimp
 24a:	0000                	unimp
 24c:	0000                	unimp
 24e:	0000                	unimp
 250:	d800                	sw	s0,48(s0)
 252:	0001                	nop
 254:	0000                	unimp
 256:	0000                	unimp
 258:	0400                	addi	s0,sp,512
 25a:	0002                	c.slli64	zero
 25c:	0000                	unimp
 25e:	0000                	unimp
 260:	0200                	addi	s0,sp,256
 262:	3000                	fld	fs0,32(s0)
 264:	049f 0002 0000      	0x2049f
 26a:	0000                	unimp
 26c:	5000                	lw	s0,32(s0)
 26e:	0002                	c.slli64	zero
 270:	0000                	unimp
 272:	0000                	unimp
 274:	0200                	addi	s0,sp,256
 276:	3100                	fld	fs0,32(a0)
 278:	009f 0000 0000      	0x9f
 27e:	0000                	unimp
 280:	0000                	unimp
 282:	0000                	unimp
 284:	0000                	unimp
 286:	0000                	unimp
 288:	6000                	ld	s0,0(s0)
 28a:	0001                	nop
 28c:	0000                	unimp
 28e:	0000                	unimp
 290:	7300                	ld	s0,32(a4)
 292:	0001                	nop
 294:	0000                	unimp
 296:	0000                	unimp
 298:	0100                	addi	s0,sp,128
 29a:	5a00                	lw	s0,48(a2)
 29c:	00000173          	0x173
 2a0:	0000                	unimp
 2a2:	0000                	unimp
 2a4:	0184                	addi	s1,sp,192
 2a6:	0000                	unimp
 2a8:	0000                	unimp
 2aa:	0000                	unimp
 2ac:	0001                	nop
 2ae:	8458                	0x8458
 2b0:	0001                	nop
 2b2:	0000                	unimp
 2b4:	0000                	unimp
 2b6:	9800                	0x9800
 2b8:	0001                	nop
 2ba:	0000                	unimp
 2bc:	0000                	unimp
 2be:	0100                	addi	s0,sp,128
 2c0:	5f00                	lw	s0,56(a4)
 2c2:	0198                	addi	a4,sp,192
 2c4:	0000                	unimp
 2c6:	0000                	unimp
 2c8:	0000                	unimp
 2ca:	01a8                	addi	a0,sp,200
 2cc:	0000                	unimp
 2ce:	0000                	unimp
 2d0:	0000                	unimp
 2d2:	7f780003          	lb	zero,2039(a6)
 2d6:	a89f 0001 0000      	0x1a89f
 2dc:	0000                	unimp
 2de:	b800                	fsd	fs0,48(s0)
 2e0:	0001                	nop
 2e2:	0000                	unimp
 2e4:	0000                	unimp
 2e6:	0400                	addi	s0,sp,512
 2e8:	f300                	sd	s0,32(a4)
 2ea:	5a01                	li	s4,-32
 2ec:	009f 0000 0000      	0x9f
 2f2:	0000                	unimp
 2f4:	0000                	unimp
 2f6:	0000                	unimp
 2f8:	0000                	unimp
 2fa:	0000                	unimp
 2fc:	7400                	ld	s0,40(s0)
 2fe:	0001                	nop
 300:	0000                	unimp
 302:	0000                	unimp
 304:	9800                	0x9800
 306:	0001                	nop
 308:	0000                	unimp
 30a:	0000                	unimp
 30c:	0200                	addi	s0,sp,256
 30e:	3000                	fld	fs0,32(s0)
 310:	989f 0001 0000      	0x1989f
 316:	0000                	unimp
 318:	a000                	fsd	fs0,0(s0)
 31a:	0001                	nop
 31c:	0000                	unimp
 31e:	0000                	unimp
 320:	0600                	addi	s0,sp,768
 322:	7f00                	ld	s0,56(a4)
 324:	7800                	ld	s0,48(s0)
 326:	1c7f                	0x1c7f
 328:	a09f 0001 0000      	0x1a09f
 32e:	0000                	unimp
 330:	a400                	fsd	fs0,8(s0)
 332:	0001                	nop
 334:	0000                	unimp
 336:	0000                	unimp
 338:	0800                	addi	s0,sp,16
 33a:	7f00                	ld	s0,56(a4)
 33c:	7800                	ld	s0,48(s0)
 33e:	1c7f                	0x1c7f
 340:	009f0123          	sb	s1,2(t5) # 844ae <_tbss_end+0x8444a>
 344:	0000                	unimp
 346:	0000                	unimp
 348:	0000                	unimp
 34a:	0000                	unimp
 34c:	0000                	unimp
 34e:	0000                	unimp
 350:	0000                	unimp
 352:	9c00                	0x9c00
 354:	0001                	nop
 356:	0000                	unimp
 358:	0000                	unimp
 35a:	a000                	fsd	fs0,0(s0)
 35c:	0001                	nop
 35e:	0000                	unimp
 360:	0000                	unimp
 362:	0100                	addi	s0,sp,128
 364:	5e00                	lw	s0,56(a2)
 366:	0000                	unimp
 368:	0000                	unimp
 36a:	0000                	unimp
 36c:	0000                	unimp
 36e:	0000                	unimp
 370:	0000                	unimp
 372:	0000                	unimp
 374:	0000                	unimp
 376:	0120                	addi	s0,sp,136
 378:	0000                	unimp
 37a:	0000                	unimp
 37c:	0000                	unimp
 37e:	015c                	addi	a5,sp,132
 380:	0000                	unimp
 382:	0000                	unimp
 384:	0000                	unimp
 386:	0001                	nop
 388:	5c5a                	lw	s8,180(sp)
 38a:	0001                	nop
 38c:	0000                	unimp
 38e:	0000                	unimp
 390:	6000                	ld	s0,0(s0)
 392:	0001                	nop
 394:	0000                	unimp
 396:	0000                	unimp
 398:	0400                	addi	s0,sp,512
 39a:	f300                	sd	s0,32(a4)
 39c:	5a01                	li	s4,-32
 39e:	009f 0000 0000      	0x9f
 3a4:	0000                	unimp
 3a6:	0000                	unimp
 3a8:	0000                	unimp
 3aa:	0000                	unimp
 3ac:	0000                	unimp
 3ae:	2000                	fld	fs0,0(s0)
 3b0:	0001                	nop
 3b2:	0000                	unimp
 3b4:	0000                	unimp
 3b6:	3400                	fld	fs0,40(s0)
 3b8:	0001                	nop
 3ba:	0000                	unimp
 3bc:	0000                	unimp
 3be:	0200                	addi	s0,sp,256
 3c0:	3000                	fld	fs0,32(s0)
 3c2:	009f 0000 0000      	0x9f
 3c8:	0000                	unimp
 3ca:	0000                	unimp
 3cc:	0000                	unimp
 3ce:	0000                	unimp
 3d0:	0000                	unimp
 3d2:	0800                	addi	s0,sp,16
 3d4:	0001                	nop
 3d6:	0000                	unimp
 3d8:	0000                	unimp
 3da:	1800                	addi	s0,sp,48
 3dc:	0001                	nop
 3de:	0000                	unimp
 3e0:	0000                	unimp
 3e2:	0100                	addi	s0,sp,128
 3e4:	5a00                	lw	s0,48(a2)
 3e6:	0000                	unimp
 3e8:	0000                	unimp
 3ea:	0000                	unimp
 3ec:	0000                	unimp
 3ee:	0000                	unimp
 3f0:	0000                	unimp
 3f2:	0000                	unimp
 3f4:	0000                	unimp
 3f6:	00e0                	addi	s0,sp,76
 3f8:	0000                	unimp
 3fa:	0000                	unimp
 3fc:	0000                	unimp
 3fe:	00f0                	addi	a2,sp,76
 400:	0000                	unimp
 402:	0000                	unimp
 404:	0000                	unimp
 406:	0001                	nop
 408:	f05a                	sd	s6,32(sp)
 40a:	0000                	unimp
 40c:	0000                	unimp
 40e:	0000                	unimp
 410:	fc00                	sd	s0,56(s0)
 412:	0000                	unimp
 414:	0000                	unimp
 416:	0000                	unimp
 418:	0400                	addi	s0,sp,512
 41a:	f300                	sd	s0,32(a4)
 41c:	5a01                	li	s4,-32
 41e:	009f 0000 0000      	0x9f
 424:	0000                	unimp
 426:	0000                	unimp
 428:	0000                	unimp
 42a:	0000                	unimp
 42c:	0000                	unimp
 42e:	b800                	fsd	fs0,48(s0)
 430:	0000                	unimp
 432:	0000                	unimp
 434:	0000                	unimp
 436:	d400                	sw	s0,40(s0)
 438:	0000                	unimp
 43a:	0000                	unimp
 43c:	0000                	unimp
 43e:	0100                	addi	s0,sp,128
 440:	5a00                	lw	s0,48(a2)
 442:	00d4                	addi	a3,sp,68
 444:	0000                	unimp
 446:	0000                	unimp
 448:	0000                	unimp
 44a:	00d8                	addi	a4,sp,68
 44c:	0000                	unimp
 44e:	0000                	unimp
 450:	0000                	unimp
 452:	0004                	0x4
 454:	9f5a01f3          	0x9f5a01f3
 458:	00d8                	addi	a4,sp,68
 45a:	0000                	unimp
 45c:	0000                	unimp
 45e:	0000                	unimp
 460:	00e0                	addi	s0,sp,76
 462:	0000                	unimp
 464:	0000                	unimp
 466:	0000                	unimp
 468:	0001                	nop
 46a:	005a                	c.slli	zero,0x16
 46c:	0000                	unimp
 46e:	0000                	unimp
 470:	0000                	unimp
 472:	0000                	unimp
 474:	0000                	unimp
 476:	0000                	unimp
 478:	0000                	unimp
 47a:	b800                	fsd	fs0,48(s0)
 47c:	0000                	unimp
 47e:	0000                	unimp
 480:	0000                	unimp
 482:	c400                	sw	s0,8(s0)
 484:	0000                	unimp
 486:	0000                	unimp
 488:	0000                	unimp
 48a:	0100                	addi	s0,sp,128
 48c:	5a00                	lw	s0,48(a2)
 48e:	00c4                	addi	s1,sp,68
 490:	0000                	unimp
 492:	0000                	unimp
 494:	0000                	unimp
 496:	00d8                	addi	a4,sp,68
 498:	0000                	unimp
 49a:	0000                	unimp
 49c:	0000                	unimp
 49e:	0001                	nop
 4a0:	d85f 0000 0000      	0xd85f
 4a6:	0000                	unimp
 4a8:	e000                	sd	s0,0(s0)
 4aa:	0000                	unimp
 4ac:	0000                	unimp
 4ae:	0000                	unimp
 4b0:	0100                	addi	s0,sp,128
 4b2:	5a00                	lw	s0,48(a2)
 4b4:	0000                	unimp
 4b6:	0000                	unimp
 4b8:	0000                	unimp
 4ba:	0000                	unimp
 4bc:	0000                	unimp
 4be:	0000                	unimp
 4c0:	0000                	unimp
 4c2:	0000                	unimp
 4c4:	0018                	0x18
 4c6:	0000                	unimp
 4c8:	0000                	unimp
 4ca:	0000                	unimp
 4cc:	0028                	addi	a0,sp,8
 4ce:	0000                	unimp
 4d0:	0000                	unimp
 4d2:	0000                	unimp
 4d4:	0002                	c.slli64	zero
 4d6:	9f30                	0x9f30
 4d8:	0028                	addi	a0,sp,8
 4da:	0000                	unimp
 4dc:	0000                	unimp
 4de:	0000                	unimp
 4e0:	003c                	addi	a5,sp,8
 4e2:	0000                	unimp
 4e4:	0000                	unimp
 4e6:	0000                	unimp
 4e8:	0001                	nop
 4ea:	445e                	lw	s0,212(sp)
 4ec:	0000                	unimp
 4ee:	0000                	unimp
 4f0:	0000                	unimp
 4f2:	4800                	lw	s0,16(s0)
 4f4:	0000                	unimp
 4f6:	0000                	unimp
 4f8:	0000                	unimp
 4fa:	0200                	addi	s0,sp,256
 4fc:	3000                	fld	fs0,32(s0)
 4fe:	009f 0000 0000      	0x9f
 504:	0000                	unimp
 506:	0000                	unimp
 508:	0000                	unimp
 50a:	0000                	unimp
 50c:	0000                	unimp
 50e:	2800                	fld	fs0,16(s0)
 510:	0000                	unimp
 512:	0000                	unimp
 514:	0000                	unimp
 516:	2c00                	fld	fs0,24(s0)
 518:	0000                	unimp
 51a:	0000                	unimp
 51c:	0000                	unimp
 51e:	0200                	addi	s0,sp,256
 520:	3000                	fld	fs0,32(s0)
 522:	2c9f 0000 0000      	0x2c9f
 528:	0000                	unimp
 52a:	3000                	fld	fs0,32(s0)
 52c:	0000                	unimp
 52e:	0000                	unimp
 530:	0000                	unimp
 532:	0700                	addi	s0,sp,896
 534:	0a00                	addi	s0,sp,272
 536:	249f 007f 9f1c      	0x9f1c007f249f
 53c:	0030                	addi	a2,sp,8
 53e:	0000                	unimp
 540:	0000                	unimp
 542:	0000                	unimp
 544:	0034                	addi	a3,sp,8
 546:	0000                	unimp
 548:	0000                	unimp
 54a:	0000                	unimp
 54c:	a00a0007          	0xa00a0007
 550:	7f24                	ld	s1,120(a4)
 552:	1c00                	addi	s0,sp,560
 554:	009f 0000 0000      	0x9f
 55a:	0000                	unimp
 55c:	0000                	unimp
 55e:	0000                	unimp
 560:	0000                	unimp
 562:	0000                	unimp
 564:	0000                	unimp
 566:	0000                	unimp
 568:	0000                	unimp
 56a:	0000                	unimp
 56c:	0800                	addi	s0,sp,16
 56e:	0000                	unimp
 570:	0000                	unimp
 572:	0000                	unimp
 574:	0200                	addi	s0,sp,256
 576:	3000                	fld	fs0,32(s0)
 578:	089f 0000 0000      	0x89f
 57e:	0000                	unimp
 580:	1000                	addi	s0,sp,32
 582:	0000                	unimp
 584:	0000                	unimp
 586:	0000                	unimp
 588:	0100                	addi	s0,sp,128
 58a:	5f00                	lw	s0,56(a4)
 58c:	0000                	unimp
 58e:	0000                	unimp
 590:	0000                	unimp
 592:	0000                	unimp
 594:	0000                	unimp
 596:	0000                	unimp
 598:	0000                	unimp
 59a:	0000                	unimp
 59c:	0250                	addi	a2,sp,260
 59e:	0000                	unimp
 5a0:	0000                	unimp
 5a2:	0000                	unimp
 5a4:	0260                	addi	s0,sp,268
 5a6:	0000                	unimp
 5a8:	0000                	unimp
 5aa:	0000                	unimp
 5ac:	0001                	nop
 5ae:	605a                	0x605a
 5b0:	0002                	c.slli64	zero
 5b2:	0000                	unimp
 5b4:	0000                	unimp
 5b6:	6400                	ld	s0,8(s0)
 5b8:	0002                	c.slli64	zero
 5ba:	0000                	unimp
 5bc:	0000                	unimp
 5be:	0400                	addi	s0,sp,512
 5c0:	f300                	sd	s0,32(a4)
 5c2:	5a01                	li	s4,-32
 5c4:	009f 0000 0000      	0x9f
 5ca:	0000                	unimp
 5cc:	0000                	unimp
 5ce:	0000                	unimp
 5d0:	0000                	unimp
 5d2:	0000                	unimp
 5d4:	00              	Address 0x00000000000005d4 is out of bounds.


Disassembly of section .debug_aranges:

0000000000000000 <.debug_aranges>:
   0:	002c                	addi	a1,sp,8
   2:	0000                	unimp
   4:	0002                	c.slli64	zero
   6:	0000                	unimp
   8:	0000                	unimp
   a:	0008                	0x8
   c:	0000                	unimp
   e:	0000                	unimp
  10:	027c                	addi	a5,sp,268
  12:	4000                	lw	s0,0(s0)
  14:	0000                	unimp
  16:	0000                	unimp
  18:	0668                	addi	a0,sp,780
  1a:	0000                	unimp
  1c:	0000                	unimp
  1e:	0000                	unimp
  20:	0000                	unimp
  22:	0000                	unimp
  24:	0000                	unimp
  26:	0000                	unimp
  28:	0000                	unimp
  2a:	0000                	unimp
  2c:	0000                	unimp
  2e:	0000                	unimp
  30:	002c                	addi	a1,sp,8
  32:	0000                	unimp
  34:	0002                	c.slli64	zero
  36:	00001497          	auipc	s1,0x1
  3a:	0008                	0x8
  3c:	0000                	unimp
  3e:	0000                	unimp
  40:	0000                	unimp
  42:	4000                	lw	s0,0(s0)
  44:	0000                	unimp
  46:	0000                	unimp
  48:	027c                	addi	a5,sp,268
  4a:	0000                	unimp
  4c:	0000                	unimp
  4e:	0000                	unimp
  50:	0000                	unimp
  52:	0000                	unimp
  54:	0000                	unimp
  56:	0000                	unimp
  58:	0000                	unimp
  5a:	0000                	unimp
  5c:	0000                	unimp
  5e:	0000                	unimp

Disassembly of section .debug_ranges:

0000000000000000 <.debug_ranges>:
   0:	0018                	0x18
   2:	0000                	unimp
   4:	0000                	unimp
   6:	0000                	unimp
   8:	001c                	0x1c
   a:	0000                	unimp
   c:	0000                	unimp
   e:	0000                	unimp
  10:	0024                	addi	s1,sp,8
  12:	0000                	unimp
  14:	0000                	unimp
  16:	0000                	unimp
  18:	0028                	addi	a0,sp,8
  1a:	0000                	unimp
  1c:	0000                	unimp
  1e:	0000                	unimp
  20:	002c                	addi	a1,sp,8
  22:	0000                	unimp
  24:	0000                	unimp
  26:	0000                	unimp
  28:	0040                	addi	s0,sp,4
  2a:	0000                	unimp
  2c:	0000                	unimp
  2e:	0000                	unimp
  30:	0000                	unimp
  32:	0000                	unimp
  34:	0000                	unimp
  36:	0000                	unimp
  38:	0000                	unimp
  3a:	0000                	unimp
  3c:	0000                	unimp
  3e:	0000                	unimp
  40:	0194                	addi	a3,sp,192
  42:	0000                	unimp
  44:	0000                	unimp
  46:	0000                	unimp
  48:	0198                	addi	a4,sp,192
  4a:	0000                	unimp
  4c:	0000                	unimp
  4e:	0000                	unimp
  50:	019c                	addi	a5,sp,192
  52:	0000                	unimp
  54:	0000                	unimp
  56:	0000                	unimp
  58:	01a4                	addi	s1,sp,200
  5a:	0000                	unimp
  5c:	0000                	unimp
  5e:	0000                	unimp
  60:	0000                	unimp
  62:	0000                	unimp
  64:	0000                	unimp
  66:	0000                	unimp
  68:	0000                	unimp
  6a:	0000                	unimp
  6c:	0000                	unimp
  6e:	0000                	unimp

Disassembly of section .debug_line:

0000000000000000 <.debug_line>:
   0:	0000062b          	0x62b
   4:	01830003          	lb	zero,24(t1)
   8:	0000                	unimp
   a:	0101                	addi	sp,sp,0
   c:	000d0efb          	0xd0efb
  10:	0101                	addi	sp,sp,0
  12:	0101                	addi	sp,sp,0
  14:	0000                	unimp
  16:	0100                	addi	s0,sp,128
  18:	0000                	unimp
  1a:	2f01                	sext.w	t5,t5
  1c:	6f68                	ld	a0,216(a4)
  1e:	656d                	lui	a0,0x1b
  20:	68717a2f          	0x68717a2f
  24:	7369722f          	0x7369722f
  28:	2f762d63          	0x2f762d63
  2c:	6f74                	ld	a3,216(a4)
  2e:	68636c6f          	jal	s8,366b4 <_tbss_end+0x36650>
  32:	6961                	lui	s2,0x18
  34:	2f6e                	fld	ft10,216(sp)
  36:	6972                	ld	s2,280(sp)
  38:	36766373          	csrrsi	t1,0x367,12
  3c:	2d34                	fld	fa3,88(a0)
  3e:	6e75                	lui	t3,0x1d
  40:	776f6e6b          	0x776f6e6b
  44:	2d6e                	fld	fs10,216(sp)
  46:	6c65                	lui	s8,0x19
  48:	2f66                	fld	ft10,88(sp)
  4a:	6e69                	lui	t3,0x1a
  4c:	64756c63          	bltu	a0,t2,6a4 <_tbss_end+0x640>
  50:	2f65                	addiw	t5,t5,25
  52:	616d                	addi	sp,sp,240
  54:	6e696863          	bltu	s2,t1,744 <_tbss_end+0x6e0>
  58:	0065                	c.nop	25
  5a:	6d6f682f          	0x6d6f682f
  5e:	2f65                	addiw	t5,t5,25
  60:	717a                	ld	sp,440(sp)
  62:	2f68                	fld	fa0,216(a4)
  64:	6972                	ld	s2,280(sp)
  66:	762d6373          	csrrsi	t1,0x762,26
  6a:	6f6f742f          	0x6f6f742f
  6e:	636c                	ld	a1,192(a4)
  70:	6168                	ld	a0,192(a0)
  72:	6e69                	lui	t3,0x1a
  74:	62696c2f          	0x62696c2f
  78:	6363672f          	0x6363672f
  7c:	7369722f          	0x7369722f
  80:	34367663          	bgeu	a2,gp,3cc <_tbss_end+0x368>
  84:	752d                	lui	a0,0xfffeb
  86:	6b6e                	ld	s6,216(sp)
  88:	6f6e                	ld	t5,216(sp)
  8a:	652d6e77          	0x652d6e77
  8e:	666c                	ld	a1,200(a2)
  90:	322e372f          	0x322e372f
  94:	302e                	fld	ft0,232(sp)
  96:	636e692f          	0x636e692f
  9a:	756c                	ld	a1,232(a0)
  9c:	6564                	ld	s1,200(a0)
  9e:	2f00                	fld	fs0,24(a4)
  a0:	6f68                	ld	a0,216(a4)
  a2:	656d                	lui	a0,0x1b
  a4:	68717a2f          	0x68717a2f
  a8:	7369722f          	0x7369722f
  ac:	2f762d63          	0x2f762d63
  b0:	6f74                	ld	a3,216(a4)
  b2:	68636c6f          	jal	s8,36738 <_tbss_end+0x366d4>
  b6:	6961                	lui	s2,0x18
  b8:	2f6e                	fld	ft10,216(sp)
  ba:	6972                	ld	s2,280(sp)
  bc:	36766373          	csrrsi	t1,0x367,12
  c0:	2d34                	fld	fa3,88(a0)
  c2:	6e75                	lui	t3,0x1d
  c4:	776f6e6b          	0x776f6e6b
  c8:	2d6e                	fld	fs10,216(sp)
  ca:	6c65                	lui	s8,0x19
  cc:	2f66                	fld	ft10,88(sp)
  ce:	6e69                	lui	t3,0x1a
  d0:	64756c63          	bltu	a0,t2,728 <_tbss_end+0x6c4>
  d4:	2f65                	addiw	t5,t5,25
  d6:	00737973          	csrrci	s2,0x7,6
  da:	6d6f682f          	0x6d6f682f
  de:	2f65                	addiw	t5,t5,25
  e0:	717a                	ld	sp,440(sp)
  e2:	2f68                	fld	fa0,216(a4)
  e4:	6972                	ld	s2,280(sp)
  e6:	762d6373          	csrrsi	t1,0x762,26
  ea:	6f6f742f          	0x6f6f742f
  ee:	636c                	ld	a1,192(a4)
  f0:	6168                	ld	a0,192(a0)
  f2:	6e69                	lui	t3,0x1a
  f4:	7369722f          	0x7369722f
  f8:	34367663          	bgeu	a2,gp,444 <_tbss_end+0x3e0>
  fc:	752d                	lui	a0,0xfffeb
  fe:	6b6e                	ld	s6,216(sp)
 100:	6f6e                	ld	t5,216(sp)
 102:	652d6e77          	0x652d6e77
 106:	666c                	ld	a1,200(a2)
 108:	636e692f          	0x636e692f
 10c:	756c                	ld	a1,232(a0)
 10e:	6564                	ld	s1,200(a0)
 110:	0000                	unimp
 112:	6e69                	lui	t3,0x1a
 114:	7469                	lui	s0,0xffffa
 116:	632e                	ld	t1,200(sp)
 118:	0000                	unimp
 11a:	0000                	unimp
 11c:	645f 6665 7561      	0x75616665645f
 122:	746c                	ld	a1,232(s0)
 124:	745f 7079 7365      	0x73657079745f
 12a:	682e                	ld	a6,200(sp)
 12c:	0100                	addi	s0,sp,128
 12e:	0000                	unimp
 130:	64647473          	csrrci	s0,0x646,8
 134:	6665                	lui	a2,0x19
 136:	682e                	ld	a6,200(sp)
 138:	0200                	addi	s0,sp,256
 13a:	0000                	unimp
 13c:	6f6c                	ld	a1,216(a4)
 13e:	682e6b63          	bltu	t3,sp,7d4 <_tbss_end+0x770>
 142:	0300                	addi	s0,sp,384
 144:	0000                	unimp
 146:	745f 7079 7365      	0x73657079745f
 14c:	682e                	ld	a6,200(sp)
 14e:	0300                	addi	s0,sp,384
 150:	0000                	unimp
 152:	6572                	ld	a0,280(sp)
 154:	6e65                	lui	t3,0x19
 156:	2e74                	fld	fa3,216(a2)
 158:	0068                	addi	a0,sp,12
 15a:	5f000003          	lb	zero,1520(zero) # 5f0 <_tbss_end+0x58c>
 15e:	69647473          	csrrci	s0,0x696,8
 162:	746e                	ld	s0,248(sp)
 164:	682e                	ld	a6,200(sp)
 166:	0300                	addi	s0,sp,384
 168:	0000                	unimp
 16a:	6c647473          	csrrci	s0,0x6c6,8
 16e:	6269                	lui	tp,0x1a
 170:	682e                	ld	a6,200(sp)
 172:	0400                	addi	s0,sp,512
 174:	0000                	unimp
 176:	616d                	addi	sp,sp,240
 178:	6874                	ld	a3,208(s0)
 17a:	682e                	ld	a6,200(sp)
 17c:	0400                	addi	s0,sp,512
 17e:	0000                	unimp
 180:	69727473          	csrrci	s0,0x697,4
 184:	676e                	ld	a4,216(sp)
 186:	682e                	ld	a6,200(sp)
 188:	0400                	addi	s0,sp,512
 18a:	0000                	unimp
 18c:	0000                	unimp
 18e:	0209                	addi	tp,tp,2
 190:	027c                	addi	a5,sp,268
 192:	4000                	lw	s0,0(s0)
 194:	0000                	unimp
 196:	0000                	unimp
 198:	0319                	addi	t1,t1,6
 19a:	0901                	addi	s2,s2,0
 19c:	0000                	unimp
 19e:	0001                	nop
 1a0:	0402                	c.slli64	s0
 1a2:	09010303          	lb	t1,144(sp) # 50b01de <_tbss_end+0x50b017a>
 1a6:	0008                	0x8
 1a8:	0001                	nop
 1aa:	0402                	c.slli64	s0
 1ac:	097f0303          	lb	t1,151(t5)
 1b0:	0004                	0x4
 1b2:	0301                	addi	t1,t1,0
 1b4:	00080903          	lb	s2,0(a6)
 1b8:	0301                	addi	t1,t1,0
 1ba:	0904                	addi	s1,sp,144
 1bc:	0004                	0x4
 1be:	0301                	addi	t1,t1,0
 1c0:	0901                	addi	s2,s2,0
 1c2:	0000                	unimp
 1c4:	0301                	addi	t1,t1,0
 1c6:	097f                	0x97f
 1c8:	0004                	0x4
 1ca:	0301                	addi	t1,t1,0
 1cc:	0901                	addi	s2,s2,0
 1ce:	0008                	0x8
 1d0:	0301                	addi	t1,t1,0
 1d2:	097f                	0x97f
 1d4:	0004                	0x4
 1d6:	0001                	nop
 1d8:	0402                	c.slli64	s0
 1da:	09030303          	lb	t1,144(t1)
 1de:	0004                	0x4
 1e0:	0001                	nop
 1e2:	0402                	c.slli64	s0
 1e4:	097f0303          	lb	t1,151(t5)
 1e8:	0008                	0x8
 1ea:	0001                	nop
 1ec:	0402                	c.slli64	s0
 1ee:	0302                	c.slli64	t1
 1f0:	097f                	0x97f
 1f2:	0004                	0x4
 1f4:	0301                	addi	t1,t1,0
 1f6:	0905                	addi	s2,s2,1
 1f8:	0008                	0x8
 1fa:	0301                	addi	t1,t1,0
 1fc:	0902                	c.slli64	s2
 1fe:	0008                	0x8
 200:	0301                	addi	t1,t1,0
 202:	0902                	c.slli64	s2
 204:	0000                	unimp
 206:	0301                	addi	t1,t1,0
 208:	0902                	c.slli64	s2
 20a:	0010                	0x10
 20c:	0301                	addi	t1,t1,0
 20e:	0901                	addi	s2,s2,0
 210:	0008                	0x8
 212:	0301                	addi	t1,t1,0
 214:	0905                	addi	s2,s2,1
 216:	0018                	0x18
 218:	0301                	addi	t1,t1,0
 21a:	0902                	c.slli64	s2
 21c:	000c                	0xc
 21e:	0301                	addi	t1,t1,0
 220:	0901                	addi	s2,s2,0
 222:	0008                	0x8
 224:	0301                	addi	t1,t1,0
 226:	0901                	addi	s2,s2,0
 228:	0018                	0x18
 22a:	0301                	addi	t1,t1,0
 22c:	0918                	addi	a4,sp,144
 22e:	0010                	0x10
 230:	0301                	addi	t1,t1,0
 232:	00040903          	lb	s2,0(s0) # ffffffffffffa000 <_end+0xffffffffbfff95c8>
 236:	0301                	addi	t1,t1,0
 238:	0902                	c.slli64	s2
 23a:	0000                	unimp
 23c:	0301                	addi	t1,t1,0
 23e:	097f                	0x97f
 240:	0008                	0x8
 242:	0301                	addi	t1,t1,0
 244:	0902                	c.slli64	s2
 246:	0004                	0x4
 248:	0301                	addi	t1,t1,0
 24a:	097f                	0x97f
 24c:	0004                	0x4
 24e:	0301                	addi	t1,t1,0
 250:	00080903          	lb	s2,0(a6)
 254:	0301                	addi	t1,t1,0
 256:	097c                	addi	a5,sp,156
 258:	0008                	0x8
 25a:	0301                	addi	t1,t1,0
 25c:	0906                	slli	s2,s2,0x1
 25e:	0008                	0x8
 260:	0301                	addi	t1,t1,0
 262:	0901                	addi	s2,s2,0
 264:	0000                	unimp
 266:	0001                	nop
 268:	0402                	c.slli64	s0
 26a:	0601                	addi	a2,a2,0
 26c:	04090003          	lb	zero,64(s2) # 18040 <_tbss_end+0x17fdc>
 270:	0100                	addi	s0,sp,128
 272:	0306                	slli	t1,t1,0x1
 274:	0901                	addi	s2,s2,0
 276:	0008                	0x8
 278:	0301                	addi	t1,t1,0
 27a:	0901                	addi	s2,s2,0
 27c:	000c                	0xc
 27e:	0301                	addi	t1,t1,0
 280:	0902                	c.slli64	s2
 282:	0004                	0x4
 284:	0301                	addi	t1,t1,0
 286:	0902                	c.slli64	s2
 288:	0000                	unimp
 28a:	0301                	addi	t1,t1,0
 28c:	0901                	addi	s2,s2,0
 28e:	000c                	0xc
 290:	0301                	addi	t1,t1,0
 292:	0901                	addi	s2,s2,0
 294:	0004                	0x4
 296:	0301                	addi	t1,t1,0
 298:	097f                	0x97f
 29a:	0008                	0x8
 29c:	0301                	addi	t1,t1,0
 29e:	0904                	addi	s1,sp,144
 2a0:	0004                	0x4
 2a2:	0301                	addi	t1,t1,0
 2a4:	00080903          	lb	s2,0(a6)
 2a8:	0301                	addi	t1,t1,0
 2aa:	0900                	addi	s0,sp,144
 2ac:	0004                	0x4
 2ae:	0301                	addi	t1,t1,0
 2b0:	0904                	addi	s1,sp,144
 2b2:	0004                	0x4
 2b4:	0301                	addi	t1,t1,0
 2b6:	097f                	0x97f
 2b8:	0008                	0x8
 2ba:	0001                	nop
 2bc:	0402                	c.slli64	s0
 2be:	09010303          	lb	t1,144(sp)
 2c2:	0004                	0x4
 2c4:	0001                	nop
 2c6:	0402                	c.slli64	s0
 2c8:	097f0303          	lb	t1,151(t5)
 2cc:	001c                	0x1c
 2ce:	0301                	addi	t1,t1,0
 2d0:	00040903          	lb	s2,0(s0)
 2d4:	0301                	addi	t1,t1,0
 2d6:	0902                	c.slli64	s2
 2d8:	0004                	0x4
 2da:	0301                	addi	t1,t1,0
 2dc:	00080903          	lb	s2,0(a6)
 2e0:	0301                	addi	t1,t1,0
 2e2:	00100903          	lb	s2,1(zero) # 1 <_tdata_begin+0x1>
 2e6:	0301                	addi	t1,t1,0
 2e8:	0901                	addi	s2,s2,0
 2ea:	0004                	0x4
 2ec:	0301                	addi	t1,t1,0
 2ee:	02e9                	addi	t0,t0,26
 2f0:	2009                	0x2009
 2f2:	0100                	addi	s0,sp,128
 2f4:	0200                	addi	s0,sp,256
 2f6:	0304                	addi	s1,sp,384
 2f8:	097d9803          	lh	a6,151(s11)
 2fc:	0004                	0x4
 2fe:	0001                	nop
 300:	0402                	c.slli64	s0
 302:	02e80303          	lb	t1,46(a6)
 306:	0409                	addi	s0,s0,2
 308:	0100                	addi	s0,sp,128
 30a:	0200                	addi	s0,sp,256
 30c:	0304                	addi	s1,sp,384
 30e:	097d9703          	lh	a4,151(s11)
 312:	0008                	0x8
 314:	0301                	addi	t1,t1,0
 316:	00040903          	lb	s2,0(s0)
 31a:	0301                	addi	t1,t1,0
 31c:	0902                	c.slli64	s2
 31e:	0010                	0x10
 320:	0301                	addi	t1,t1,0
 322:	00200907          	0x200907
 326:	0301                	addi	t1,t1,0
 328:	097d                	addi	s2,s2,31
 32a:	0008                	0x8
 32c:	0301                	addi	t1,t1,0
 32e:	0909                	addi	s2,s2,2
 330:	0004                	0x4
 332:	0301                	addi	t1,t1,0
 334:	097c                	addi	a5,sp,156
 336:	0004                	0x4
 338:	0301                	addi	t1,t1,0
 33a:	0904                	addi	s1,sp,144
 33c:	0004                	0x4
 33e:	0301                	addi	t1,t1,0
 340:	00040903          	lb	s2,0(s0)
 344:	0301                	addi	t1,t1,0
 346:	00040903          	lb	s2,0(s0)
 34a:	0301                	addi	t1,t1,0
 34c:	0974                	addi	a3,sp,156
 34e:	0004                	0x4
 350:	0301                	addi	t1,t1,0
 352:	0902                	c.slli64	s2
 354:	0008                	0x8
 356:	0301                	addi	t1,t1,0
 358:	00040907          	0x40907
 35c:	0301                	addi	t1,t1,0
 35e:	00140903          	lb	s2,1(s0)
 362:	0301                	addi	t1,t1,0
 364:	0902                	c.slli64	s2
 366:	0004                	0x4
 368:	0301                	addi	t1,t1,0
 36a:	0902                	c.slli64	s2
 36c:	0010                	0x10
 36e:	0301                	addi	t1,t1,0
 370:	0902                	c.slli64	s2
 372:	0024                	addi	s1,sp,8
 374:	0301                	addi	t1,t1,0
 376:	0901                	addi	s2,s2,0
 378:	0000                	unimp
 37a:	0301                	addi	t1,t1,0
 37c:	0901                	addi	s2,s2,0
 37e:	000c                	0xc
 380:	0301                	addi	t1,t1,0
 382:	0906                	slli	s2,s2,0x1
 384:	0008                	0x8
 386:	0301                	addi	t1,t1,0
 388:	093a                	slli	s2,s2,0xe
 38a:	001c                	0x1c
 38c:	0301                	addi	t1,t1,0
 38e:	000c0903          	lb	s2,0(s8) # 19000 <_tbss_end+0x18f9c>
 392:	0301                	addi	t1,t1,0
 394:	0901                	addi	s2,s2,0
 396:	0008                	0x8
 398:	0301                	addi	t1,t1,0
 39a:	0901                	addi	s2,s2,0
 39c:	0004                	0x4
 39e:	0301                	addi	t1,t1,0
 3a0:	0901                	addi	s2,s2,0
 3a2:	0004                	0x4
 3a4:	0301                	addi	t1,t1,0
 3a6:	0901                	addi	s2,s2,0
 3a8:	0004                	0x4
 3aa:	0301                	addi	t1,t1,0
 3ac:	0901                	addi	s2,s2,0
 3ae:	0004                	0x4
 3b0:	0301                	addi	t1,t1,0
 3b2:	0901                	addi	s2,s2,0
 3b4:	0004                	0x4
 3b6:	0301                	addi	t1,t1,0
 3b8:	0901                	addi	s2,s2,0
 3ba:	0004                	0x4
 3bc:	0301                	addi	t1,t1,0
 3be:	0901                	addi	s2,s2,0
 3c0:	0004                	0x4
 3c2:	0301                	addi	t1,t1,0
 3c4:	0901                	addi	s2,s2,0
 3c6:	0004                	0x4
 3c8:	0301                	addi	t1,t1,0
 3ca:	0901                	addi	s2,s2,0
 3cc:	0004                	0x4
 3ce:	0301                	addi	t1,t1,0
 3d0:	0901                	addi	s2,s2,0
 3d2:	0004                	0x4
 3d4:	0301                	addi	t1,t1,0
 3d6:	0904                	addi	s1,sp,144
 3d8:	0004                	0x4
 3da:	0301                	addi	t1,t1,0
 3dc:	0901                	addi	s2,s2,0
 3de:	0008                	0x8
 3e0:	0301                	addi	t1,t1,0
 3e2:	0901                	addi	s2,s2,0
 3e4:	0004                	0x4
 3e6:	0301                	addi	t1,t1,0
 3e8:	0901                	addi	s2,s2,0
 3ea:	0004                	0x4
 3ec:	0301                	addi	t1,t1,0
 3ee:	00080903          	lb	s2,0(a6)
 3f2:	0301                	addi	t1,t1,0
 3f4:	0901                	addi	s2,s2,0
 3f6:	0008                	0x8
 3f8:	0301                	addi	t1,t1,0
 3fa:	0901                	addi	s2,s2,0
 3fc:	0004                	0x4
 3fe:	0301                	addi	t1,t1,0
 400:	0901                	addi	s2,s2,0
 402:	0004                	0x4
 404:	0301                	addi	t1,t1,0
 406:	00040977          	0x40977
 40a:	0301                	addi	t1,t1,0
 40c:	0901                	addi	s2,s2,0
 40e:	0004                	0x4
 410:	0301                	addi	t1,t1,0
 412:	0901                	addi	s2,s2,0
 414:	0004                	0x4
 416:	0301                	addi	t1,t1,0
 418:	0901                	addi	s2,s2,0
 41a:	0004                	0x4
 41c:	0301                	addi	t1,t1,0
 41e:	00040903          	lb	s2,0(s0)
 422:	0301                	addi	t1,t1,0
 424:	0901                	addi	s2,s2,0
 426:	0004                	0x4
 428:	0301                	addi	t1,t1,0
 42a:	0901                	addi	s2,s2,0
 42c:	0004                	0x4
 42e:	0301                	addi	t1,t1,0
 430:	0901                	addi	s2,s2,0
 432:	0004                	0x4
 434:	0301                	addi	t1,t1,0
 436:	00040903          	lb	s2,0(s0)
 43a:	0301                	addi	t1,t1,0
 43c:	0190                	addi	a2,sp,192
 43e:	0c09                	addi	s8,s8,2
 440:	0100                	addi	s0,sp,128
 442:	0c090103          	lb	sp,192(s2)
 446:	0100                	addi	s0,sp,128
 448:	08090103          	lb	sp,128(s2)
 44c:	0100                	addi	s0,sp,128
 44e:	04090103          	lb	sp,64(s2)
 452:	0100                	addi	s0,sp,128
 454:	0c090103          	lb	sp,192(s2)
 458:	0100                	addi	s0,sp,128
 45a:	08090103          	lb	sp,128(s2)
 45e:	0100                	addi	s0,sp,128
 460:	0c090103          	lb	sp,192(s2)
 464:	0100                	addi	s0,sp,128
 466:	0c090103          	lb	sp,192(s2)
 46a:	0100                	addi	s0,sp,128
 46c:	0c090103          	lb	sp,192(s2)
 470:	0100                	addi	s0,sp,128
 472:	0c090103          	lb	sp,192(s2)
 476:	0100                	addi	s0,sp,128
 478:	04090103          	lb	sp,64(s2)
 47c:	0100                	addi	s0,sp,128
 47e:	08090103          	lb	sp,128(s2)
 482:	0100                	addi	s0,sp,128
 484:	08090103          	lb	sp,128(s2)
 488:	0100                	addi	s0,sp,128
 48a:	08090103          	lb	sp,128(s2)
 48e:	0100                	addi	s0,sp,128
 490:	08090103          	lb	sp,128(s2)
 494:	0100                	addi	s0,sp,128
 496:	08090103          	lb	sp,128(s2)
 49a:	0100                	addi	s0,sp,128
 49c:	0c090103          	lb	sp,192(s2)
 4a0:	0100                	addi	s0,sp,128
 4a2:	0c090103          	lb	sp,192(s2)
 4a6:	0100                	addi	s0,sp,128
 4a8:	08090103          	lb	sp,128(s2)
 4ac:	0100                	addi	s0,sp,128
 4ae:	0c090103          	lb	sp,192(s2)
 4b2:	0100                	addi	s0,sp,128
 4b4:	0c090103          	lb	sp,192(s2)
 4b8:	0100                	addi	s0,sp,128
 4ba:	0c090103          	lb	sp,192(s2)
 4be:	0100                	addi	s0,sp,128
 4c0:	08090103          	lb	sp,128(s2)
 4c4:	0100                	addi	s0,sp,128
 4c6:	0c090103          	lb	sp,192(s2)
 4ca:	0100                	addi	s0,sp,128
 4cc:	0c090303          	lb	t1,192(s2)
 4d0:	0100                	addi	s0,sp,128
 4d2:	0c090203          	lb	tp,192(s2)
 4d6:	0100                	addi	s0,sp,128
 4d8:	0c090503          	lb	a0,192(s2)
 4dc:	0100                	addi	s0,sp,128
 4de:	04090103          	lb	sp,64(s2)
 4e2:	0100                	addi	s0,sp,128
 4e4:	14090a03          	lb	s4,320(s2)
 4e8:	0100                	addi	s0,sp,128
 4ea:	08090103          	lb	sp,128(s2)
 4ee:	0100                	addi	s0,sp,128
 4f0:	00090103          	lb	sp,0(s2)
 4f4:	0100                	addi	s0,sp,128
 4f6:	08097d03          	0x8097d03
 4fa:	0100                	addi	s0,sp,128
 4fc:	08090103          	lb	sp,128(s2)
 500:	0100                	addi	s0,sp,128
 502:	08090103          	lb	sp,128(s2)
 506:	0100                	addi	s0,sp,128
 508:	10090103          	lb	sp,256(s2)
 50c:	0100                	addi	s0,sp,128
 50e:	08097303          	0x8097303
 512:	0100                	addi	s0,sp,128
 514:	08090103          	lb	sp,128(s2)
 518:	0100                	addi	s0,sp,128
 51a:	10090103          	lb	sp,256(s2)
 51e:	0100                	addi	s0,sp,128
 520:	08090103          	lb	sp,128(s2)
 524:	0100                	addi	s0,sp,128
 526:	0c090f03          	lb	t5,192(s2)
 52a:	0100                	addi	s0,sp,128
 52c:	0c090203          	lb	tp,192(s2)
 530:	0100                	addi	s0,sp,128
 532:	0c090303          	lb	t1,192(s2)
 536:	0100                	addi	s0,sp,128
 538:	14090103          	lb	sp,320(s2)
 53c:	0100                	addi	s0,sp,128
 53e:	0c090803          	lb	a6,192(s2)
 542:	0100                	addi	s0,sp,128
 544:	0c090203          	lb	tp,192(s2)
 548:	0100                	addi	s0,sp,128
 54a:	14090103          	lb	sp,320(s2)
 54e:	0100                	addi	s0,sp,128
 550:	0c090a03          	lb	s4,192(s2)
 554:	0100                	addi	s0,sp,128
 556:	0c090103          	lb	sp,192(s2)
 55a:	0100                	addi	s0,sp,128
 55c:	08090103          	lb	sp,128(s2)
 560:	0100                	addi	s0,sp,128
 562:	20090303          	lb	t1,512(s2)
 566:	0100                	addi	s0,sp,128
 568:	00090803          	lb	a6,0(s2)
 56c:	0100                	addi	s0,sp,128
 56e:	08090303          	lb	t1,128(s2)
 572:	0100                	addi	s0,sp,128
 574:	04090203          	lb	tp,64(s2)
 578:	0100                	addi	s0,sp,128
 57a:	00090203          	lb	tp,0(s2)
 57e:	0100                	addi	s0,sp,128
 580:	10090203          	lb	tp,256(s2)
 584:	0100                	addi	s0,sp,128
 586:	0c090703          	lb	a4,192(s2)
 58a:	0100                	addi	s0,sp,128
 58c:	04090303          	lb	t1,64(s2)
 590:	0100                	addi	s0,sp,128
 592:	04090103          	lb	sp,64(s2)
 596:	0100                	addi	s0,sp,128
 598:	04090203          	lb	tp,64(s2)
 59c:	0100                	addi	s0,sp,128
 59e:	08090103          	lb	sp,128(s2)
 5a2:	0100                	addi	s0,sp,128
 5a4:	04090203          	lb	tp,64(s2)
 5a8:	0100                	addi	s0,sp,128
 5aa:	00090103          	lb	sp,0(s2)
 5ae:	0100                	addi	s0,sp,128
 5b0:	0c097f03          	0xc097f03
 5b4:	0100                	addi	s0,sp,128
 5b6:	08090203          	lb	tp,128(s2)
 5ba:	0100                	addi	s0,sp,128
 5bc:	04090103          	lb	sp,64(s2)
 5c0:	0100                	addi	s0,sp,128
 5c2:	04090803          	lb	a6,64(s2)
 5c6:	0100                	addi	s0,sp,128
 5c8:	0c090203          	lb	tp,192(s2)
 5cc:	0100                	addi	s0,sp,128
 5ce:	08090103          	lb	sp,128(s2)
 5d2:	0100                	addi	s0,sp,128
 5d4:	0c090403          	lb	s0,192(s2)
 5d8:	0100                	addi	s0,sp,128
 5da:	0901bd03          	ld	s10,144(gp) # 40010090 <_end+0xf658>
 5de:	0004                	0x4
 5e0:	0301                	addi	t1,t1,0
 5e2:	00100903          	lb	s2,1(zero) # 1 <_tdata_begin+0x1>
 5e6:	0301                	addi	t1,t1,0
 5e8:	00080903          	lb	s2,0(a6)
 5ec:	0301                	addi	t1,t1,0
 5ee:	0901                	addi	s2,s2,0
 5f0:	0004                	0x4
 5f2:	0301                	addi	t1,t1,0
 5f4:	0902                	c.slli64	s2
 5f6:	0004                	0x4
 5f8:	0301                	addi	t1,t1,0
 5fa:	00100903          	lb	s2,1(zero) # 1 <_tdata_begin+0x1>
 5fe:	0301                	addi	t1,t1,0
 600:	0901                	addi	s2,s2,0
 602:	001c                	0x1c
 604:	0301                	addi	t1,t1,0
 606:	0901                	addi	s2,s2,0
 608:	000c                	0xc
 60a:	0301                	addi	t1,t1,0
 60c:	0901                	addi	s2,s2,0
 60e:	0010                	0x10
 610:	0301                	addi	t1,t1,0
 612:	0901                	addi	s2,s2,0
 614:	000c                	0xc
 616:	0301                	addi	t1,t1,0
 618:	0901                	addi	s2,s2,0
 61a:	000c                	0xc
 61c:	0301                	addi	t1,t1,0
 61e:	0901                	addi	s2,s2,0
 620:	0010                	0x10
 622:	0301                	addi	t1,t1,0
 624:	000c0903          	lb	s2,0(s8)
 628:	0901                	addi	s2,s2,0
 62a:	001c                	0x1c
 62c:	0100                	addi	s0,sp,128
 62e:	d301                	beqz	a4,52e <_tbss_end+0x4ca>
 630:	03000003          	lb	zero,48(zero) # 30 <_tdata_begin+0x30>
 634:	2300                	fld	fs0,0(a4)
 636:	0000                	unimp
 638:	0100                	addi	s0,sp,128
 63a:	fb01                	bnez	a4,54a <_tbss_end+0x4e6>
 63c:	0d0e                	slli	s10,s10,0x3
 63e:	0100                	addi	s0,sp,128
 640:	0101                	addi	sp,sp,0
 642:	0001                	nop
 644:	0000                	unimp
 646:	0001                	nop
 648:	0100                	addi	s0,sp,128
 64a:	6200                	ld	s0,0(a2)
 64c:	6c746f6f          	jal	t5,47512 <_tbss_end+0x474ae>
 650:	6564616f          	jal	sp,46ca6 <_tbss_end+0x46c42>
 654:	2e72                	fld	ft8,280(sp)
 656:	00000053          	fadd.s	ft0,ft0,ft0,rne
 65a:	0000                	unimp
 65c:	0900                	addi	s0,sp,144
 65e:	0002                	c.slli64	zero
 660:	0000                	unimp
 662:	0040                	addi	s0,sp,4
 664:	0000                	unimp
 666:	0300                	addi	s0,sp,384
 668:	0112                	slli	sp,sp,0x4
 66a:	04090103          	lb	sp,64(s2)
 66e:	0100                	addi	s0,sp,128
 670:	04090103          	lb	sp,64(s2)
 674:	0100                	addi	s0,sp,128
 676:	04090103          	lb	sp,64(s2)
 67a:	0100                	addi	s0,sp,128
 67c:	04090103          	lb	sp,64(s2)
 680:	0100                	addi	s0,sp,128
 682:	04090103          	lb	sp,64(s2)
 686:	0100                	addi	s0,sp,128
 688:	04090103          	lb	sp,64(s2)
 68c:	0100                	addi	s0,sp,128
 68e:	04090103          	lb	sp,64(s2)
 692:	0100                	addi	s0,sp,128
 694:	04090103          	lb	sp,64(s2)
 698:	0100                	addi	s0,sp,128
 69a:	04090103          	lb	sp,64(s2)
 69e:	0100                	addi	s0,sp,128
 6a0:	04090103          	lb	sp,64(s2)
 6a4:	0100                	addi	s0,sp,128
 6a6:	04090103          	lb	sp,64(s2)
 6aa:	0100                	addi	s0,sp,128
 6ac:	04090103          	lb	sp,64(s2)
 6b0:	0100                	addi	s0,sp,128
 6b2:	04090103          	lb	sp,64(s2)
 6b6:	0100                	addi	s0,sp,128
 6b8:	04090103          	lb	sp,64(s2)
 6bc:	0100                	addi	s0,sp,128
 6be:	04090103          	lb	sp,64(s2)
 6c2:	0100                	addi	s0,sp,128
 6c4:	04090103          	lb	sp,64(s2)
 6c8:	0100                	addi	s0,sp,128
 6ca:	04090103          	lb	sp,64(s2)
 6ce:	0100                	addi	s0,sp,128
 6d0:	04090103          	lb	sp,64(s2)
 6d4:	0100                	addi	s0,sp,128
 6d6:	04090103          	lb	sp,64(s2)
 6da:	0100                	addi	s0,sp,128
 6dc:	04090103          	lb	sp,64(s2)
 6e0:	0100                	addi	s0,sp,128
 6e2:	04090103          	lb	sp,64(s2)
 6e6:	0100                	addi	s0,sp,128
 6e8:	04090103          	lb	sp,64(s2)
 6ec:	0100                	addi	s0,sp,128
 6ee:	04090103          	lb	sp,64(s2)
 6f2:	0100                	addi	s0,sp,128
 6f4:	04090103          	lb	sp,64(s2)
 6f8:	0100                	addi	s0,sp,128
 6fa:	04090103          	lb	sp,64(s2)
 6fe:	0100                	addi	s0,sp,128
 700:	04090103          	lb	sp,64(s2)
 704:	0100                	addi	s0,sp,128
 706:	04090103          	lb	sp,64(s2)
 70a:	0100                	addi	s0,sp,128
 70c:	04090103          	lb	sp,64(s2)
 710:	0100                	addi	s0,sp,128
 712:	04090103          	lb	sp,64(s2)
 716:	0100                	addi	s0,sp,128
 718:	04090103          	lb	sp,64(s2)
 71c:	0100                	addi	s0,sp,128
 71e:	04090403          	lb	s0,64(s2)
 722:	0100                	addi	s0,sp,128
 724:	04090103          	lb	sp,64(s2)
 728:	0100                	addi	s0,sp,128
 72a:	04090303          	lb	t1,64(s2)
 72e:	0100                	addi	s0,sp,128
 730:	04090103          	lb	sp,64(s2)
 734:	0100                	addi	s0,sp,128
 736:	04090203          	lb	tp,64(s2)
 73a:	0100                	addi	s0,sp,128
 73c:	04091803          	lh	a6,64(s2)
 740:	0100                	addi	s0,sp,128
 742:	08090103          	lb	sp,128(s2)
 746:	0100                	addi	s0,sp,128
 748:	04090203          	lb	tp,64(s2)
 74c:	0100                	addi	s0,sp,128
 74e:	04090103          	lb	sp,64(s2)
 752:	0100                	addi	s0,sp,128
 754:	04090103          	lb	sp,64(s2)
 758:	0100                	addi	s0,sp,128
 75a:	04090103          	lb	sp,64(s2)
 75e:	0100                	addi	s0,sp,128
 760:	04090103          	lb	sp,64(s2)
 764:	0100                	addi	s0,sp,128
 766:	04090103          	lb	sp,64(s2)
 76a:	0100                	addi	s0,sp,128
 76c:	04090103          	lb	sp,64(s2)
 770:	0100                	addi	s0,sp,128
 772:	04090103          	lb	sp,64(s2)
 776:	0100                	addi	s0,sp,128
 778:	04090103          	lb	sp,64(s2)
 77c:	0100                	addi	s0,sp,128
 77e:	04090103          	lb	sp,64(s2)
 782:	0100                	addi	s0,sp,128
 784:	04090103          	lb	sp,64(s2)
 788:	0100                	addi	s0,sp,128
 78a:	04090103          	lb	sp,64(s2)
 78e:	0100                	addi	s0,sp,128
 790:	04090103          	lb	sp,64(s2)
 794:	0100                	addi	s0,sp,128
 796:	04090103          	lb	sp,64(s2)
 79a:	0100                	addi	s0,sp,128
 79c:	04090103          	lb	sp,64(s2)
 7a0:	0100                	addi	s0,sp,128
 7a2:	04090103          	lb	sp,64(s2)
 7a6:	0100                	addi	s0,sp,128
 7a8:	04090103          	lb	sp,64(s2)
 7ac:	0100                	addi	s0,sp,128
 7ae:	04090103          	lb	sp,64(s2)
 7b2:	0100                	addi	s0,sp,128
 7b4:	04090103          	lb	sp,64(s2)
 7b8:	0100                	addi	s0,sp,128
 7ba:	04090103          	lb	sp,64(s2)
 7be:	0100                	addi	s0,sp,128
 7c0:	04090103          	lb	sp,64(s2)
 7c4:	0100                	addi	s0,sp,128
 7c6:	04090103          	lb	sp,64(s2)
 7ca:	0100                	addi	s0,sp,128
 7cc:	04090103          	lb	sp,64(s2)
 7d0:	0100                	addi	s0,sp,128
 7d2:	04090103          	lb	sp,64(s2)
 7d6:	0100                	addi	s0,sp,128
 7d8:	04090103          	lb	sp,64(s2)
 7dc:	0100                	addi	s0,sp,128
 7de:	04090103          	lb	sp,64(s2)
 7e2:	0100                	addi	s0,sp,128
 7e4:	04090103          	lb	sp,64(s2)
 7e8:	0100                	addi	s0,sp,128
 7ea:	04090103          	lb	sp,64(s2)
 7ee:	0100                	addi	s0,sp,128
 7f0:	04090103          	lb	sp,64(s2)
 7f4:	0100                	addi	s0,sp,128
 7f6:	04090103          	lb	sp,64(s2)
 7fa:	0100                	addi	s0,sp,128
 7fc:	04090103          	lb	sp,64(s2)
 800:	0100                	addi	s0,sp,128
 802:	04090103          	lb	sp,64(s2)
 806:	0100                	addi	s0,sp,128
 808:	04090103          	lb	sp,64(s2)
 80c:	0100                	addi	s0,sp,128
 80e:	04090503          	lb	a0,64(s2)
 812:	0100                	addi	s0,sp,128
 814:	08090103          	lb	sp,128(s2)
 818:	0100                	addi	s0,sp,128
 81a:	04091003          	lh	zero,64(s2)
 81e:	0100                	addi	s0,sp,128
 820:	04090303          	lb	t1,64(s2)
 824:	0100                	addi	s0,sp,128
 826:	04090103          	lb	sp,64(s2)
 82a:	0100                	addi	s0,sp,128
 82c:	04091403          	lh	s0,64(s2)
 830:	0100                	addi	s0,sp,128
 832:	04090103          	lb	sp,64(s2)
 836:	0100                	addi	s0,sp,128
 838:	08090103          	lb	sp,128(s2)
 83c:	0100                	addi	s0,sp,128
 83e:	08090303          	lb	t1,128(s2)
 842:	0100                	addi	s0,sp,128
 844:	04090103          	lb	sp,64(s2)
 848:	0100                	addi	s0,sp,128
 84a:	04090303          	lb	t1,64(s2)
 84e:	0100                	addi	s0,sp,128
 850:	04090403          	lb	s0,64(s2)
 854:	0100                	addi	s0,sp,128
 856:	04090203          	lb	tp,64(s2)
 85a:	0100                	addi	s0,sp,128
 85c:	04090103          	lb	sp,64(s2)
 860:	0100                	addi	s0,sp,128
 862:	04090103          	lb	sp,64(s2)
 866:	0100                	addi	s0,sp,128
 868:	04090103          	lb	sp,64(s2)
 86c:	0100                	addi	s0,sp,128
 86e:	04090103          	lb	sp,64(s2)
 872:	0100                	addi	s0,sp,128
 874:	04090103          	lb	sp,64(s2)
 878:	0100                	addi	s0,sp,128
 87a:	04090103          	lb	sp,64(s2)
 87e:	0100                	addi	s0,sp,128
 880:	04090103          	lb	sp,64(s2)
 884:	0100                	addi	s0,sp,128
 886:	04090103          	lb	sp,64(s2)
 88a:	0100                	addi	s0,sp,128
 88c:	04090103          	lb	sp,64(s2)
 890:	0100                	addi	s0,sp,128
 892:	04090103          	lb	sp,64(s2)
 896:	0100                	addi	s0,sp,128
 898:	04090103          	lb	sp,64(s2)
 89c:	0100                	addi	s0,sp,128
 89e:	04090103          	lb	sp,64(s2)
 8a2:	0100                	addi	s0,sp,128
 8a4:	04090103          	lb	sp,64(s2)
 8a8:	0100                	addi	s0,sp,128
 8aa:	04090103          	lb	sp,64(s2)
 8ae:	0100                	addi	s0,sp,128
 8b0:	04090103          	lb	sp,64(s2)
 8b4:	0100                	addi	s0,sp,128
 8b6:	04090103          	lb	sp,64(s2)
 8ba:	0100                	addi	s0,sp,128
 8bc:	04090103          	lb	sp,64(s2)
 8c0:	0100                	addi	s0,sp,128
 8c2:	04090103          	lb	sp,64(s2)
 8c6:	0100                	addi	s0,sp,128
 8c8:	04090103          	lb	sp,64(s2)
 8cc:	0100                	addi	s0,sp,128
 8ce:	04090103          	lb	sp,64(s2)
 8d2:	0100                	addi	s0,sp,128
 8d4:	04090103          	lb	sp,64(s2)
 8d8:	0100                	addi	s0,sp,128
 8da:	04090103          	lb	sp,64(s2)
 8de:	0100                	addi	s0,sp,128
 8e0:	04090103          	lb	sp,64(s2)
 8e4:	0100                	addi	s0,sp,128
 8e6:	04090103          	lb	sp,64(s2)
 8ea:	0100                	addi	s0,sp,128
 8ec:	04090103          	lb	sp,64(s2)
 8f0:	0100                	addi	s0,sp,128
 8f2:	04090103          	lb	sp,64(s2)
 8f6:	0100                	addi	s0,sp,128
 8f8:	04090103          	lb	sp,64(s2)
 8fc:	0100                	addi	s0,sp,128
 8fe:	04090103          	lb	sp,64(s2)
 902:	0100                	addi	s0,sp,128
 904:	04090103          	lb	sp,64(s2)
 908:	0100                	addi	s0,sp,128
 90a:	04090103          	lb	sp,64(s2)
 90e:	0100                	addi	s0,sp,128
 910:	04090203          	lb	tp,64(s2)
 914:	0100                	addi	s0,sp,128
 916:	04090103          	lb	sp,64(s2)
 91a:	0100                	addi	s0,sp,128
 91c:	04090103          	lb	sp,64(s2)
 920:	0100                	addi	s0,sp,128
 922:	04090103          	lb	sp,64(s2)
 926:	0100                	addi	s0,sp,128
 928:	04090103          	lb	sp,64(s2)
 92c:	0100                	addi	s0,sp,128
 92e:	04090303          	lb	t1,64(s2)
 932:	0100                	addi	s0,sp,128
 934:	08090103          	lb	sp,128(s2)
 938:	0100                	addi	s0,sp,128
 93a:	04090203          	lb	tp,64(s2)
 93e:	0100                	addi	s0,sp,128
 940:	04090103          	lb	sp,64(s2)
 944:	0100                	addi	s0,sp,128
 946:	04090103          	lb	sp,64(s2)
 94a:	0100                	addi	s0,sp,128
 94c:	04090103          	lb	sp,64(s2)
 950:	0100                	addi	s0,sp,128
 952:	04090103          	lb	sp,64(s2)
 956:	0100                	addi	s0,sp,128
 958:	04090103          	lb	sp,64(s2)
 95c:	0100                	addi	s0,sp,128
 95e:	04090103          	lb	sp,64(s2)
 962:	0100                	addi	s0,sp,128
 964:	04090103          	lb	sp,64(s2)
 968:	0100                	addi	s0,sp,128
 96a:	04090103          	lb	sp,64(s2)
 96e:	0100                	addi	s0,sp,128
 970:	04090103          	lb	sp,64(s2)
 974:	0100                	addi	s0,sp,128
 976:	04090103          	lb	sp,64(s2)
 97a:	0100                	addi	s0,sp,128
 97c:	04090103          	lb	sp,64(s2)
 980:	0100                	addi	s0,sp,128
 982:	04090103          	lb	sp,64(s2)
 986:	0100                	addi	s0,sp,128
 988:	04090103          	lb	sp,64(s2)
 98c:	0100                	addi	s0,sp,128
 98e:	04090103          	lb	sp,64(s2)
 992:	0100                	addi	s0,sp,128
 994:	04090103          	lb	sp,64(s2)
 998:	0100                	addi	s0,sp,128
 99a:	04090103          	lb	sp,64(s2)
 99e:	0100                	addi	s0,sp,128
 9a0:	04090103          	lb	sp,64(s2)
 9a4:	0100                	addi	s0,sp,128
 9a6:	04090103          	lb	sp,64(s2)
 9aa:	0100                	addi	s0,sp,128
 9ac:	04090103          	lb	sp,64(s2)
 9b0:	0100                	addi	s0,sp,128
 9b2:	04090103          	lb	sp,64(s2)
 9b6:	0100                	addi	s0,sp,128
 9b8:	04090103          	lb	sp,64(s2)
 9bc:	0100                	addi	s0,sp,128
 9be:	04090103          	lb	sp,64(s2)
 9c2:	0100                	addi	s0,sp,128
 9c4:	04090103          	lb	sp,64(s2)
 9c8:	0100                	addi	s0,sp,128
 9ca:	04090103          	lb	sp,64(s2)
 9ce:	0100                	addi	s0,sp,128
 9d0:	04090103          	lb	sp,64(s2)
 9d4:	0100                	addi	s0,sp,128
 9d6:	04090103          	lb	sp,64(s2)
 9da:	0100                	addi	s0,sp,128
 9dc:	04090103          	lb	sp,64(s2)
 9e0:	0100                	addi	s0,sp,128
 9e2:	04090103          	lb	sp,64(s2)
 9e6:	0100                	addi	s0,sp,128
 9e8:	04090103          	lb	sp,64(s2)
 9ec:	0100                	addi	s0,sp,128
 9ee:	04090103          	lb	sp,64(s2)
 9f2:	0100                	addi	s0,sp,128
 9f4:	04090203          	lb	tp,64(s2)
 9f8:	0100                	addi	s0,sp,128
 9fa:	04090103          	lb	sp,64(s2)
 9fe:	0100                	addi	s0,sp,128
 a00:	0409                	addi	s0,s0,2
 a02:	0000                	unimp
 a04:	0101                	addi	sp,sp,0

Disassembly of section .debug_str:

0000000000000000 <.debug_str>:
   0:	6d74                	ld	a3,216(a0)
   2:	7300646f          	jal	s0,6732 <_tbss_end+0x66ce>
   6:	6d69                	lui	s10,0x1a
   8:	6c70                	ld	a2,216(s0)
   a:	5f65                	li	t5,-7
   c:	7270                	ld	a2,224(a2)
   e:	6e69                	lui	t3,0x1a
  10:	5f74                	lw	a3,124(a4)
  12:	00727473          	csrrci	s0,0x7,4
  16:	726d                	lui	tp,0xffffb
  18:	5f32                	lw	t5,44(sp)
  1a:	7472                	ld	s0,312(sp)
  1c:	5f74                	lw	a3,124(a4)
  1e:	5f007277          	0x5f007277
  22:	665f 6c64 6269      	0x62696c64665f
  28:	5f6d                	li	t5,-5
  2a:	6f78                	ld	a4,216(a4)
  2c:	6570                	ld	a2,200(a0)
  2e:	006e                	c.slli	zero,0x1b
  30:	6c727473          	csrrci	s0,0x6c7,4
  34:	6e65                	lui	t3,0x19
  36:	7300                	ld	s0,32(a4)
  38:	6372756f          	jal	a0,27e6e <_tbss_end+0x27e0a>
  3c:	5f65                	li	t5,-7
  3e:	7470                	ld	a2,232(s0)
  40:	5f72                	lw	t5,60(sp)
  42:	6162                	ld	sp,24(sp)
  44:	5f006573          	csrrsi	a0,0x5f0,0
  48:	655f6e6f          	jal	t3,f6e9c <_tbss_end+0xf6e38>
  4c:	6978                	ld	a4,208(a0)
  4e:	5f74                	lw	a3,124(a4)
  50:	7261                	lui	tp,0xffff8
  52:	64007367          	0x64007367
  56:	6c6c                	ld	a1,216(s0)
  58:	725f 7473 615f      	0x615f7473725f
  5e:	6a64                	ld	s1,208(a2)
  60:	645f 796c 7500      	0x7500796c645f
  66:	7261                	lui	tp,0xffff8
  68:	3074                	fld	fa3,224(s0)
  6a:	695f 696e 0074      	0x74696e695f
  70:	775f 7463 6d6f      	0x6d6f7463775f
  76:	5f62                	lw	t5,56(sp)
  78:	74617473          	csrrci	s0,0x746,2
  7c:	0065                	c.nop	25
  7e:	725f 3834 5f00      	0x5f003834725f
  84:	6e676973          	csrrsi	s2,0x6e6,14
  88:	6c61                	lui	s8,0x18
  8a:	625f 6675 7400      	0x74006675625f
  90:	6172                	ld	sp,280(sp)
  92:	61630073          	0x61630073
  96:	7375                	lui	t1,0xffffd
  98:	0065                	c.nop	25
  9a:	6c5f 6662 6973      	0x697366626c5f
  a0:	657a                	ld	a0,408(sp)
  a2:	5f00                	lw	s0,56(a4)
  a4:	6c66                	ld	s8,88(sp)
  a6:	6761                	lui	a4,0x18
  a8:	6f6c0073          	0x6f6c0073
  ac:	6461                	lui	s0,0x18
  ae:	695f 676d 7500      	0x7500676d695f
  b4:	6e69                	lui	t3,0x1a
  b6:	5f74                	lw	a3,124(a4)
  b8:	616d                	addi	sp,sp,240
  ba:	0078                	addi	a4,sp,12
  bc:	645f7277          	0x645f7277
  c0:	7371                	lui	t1,0xffffc
  c2:	645f 6c6c 645f      	0x645f6c6c645f
  c8:	6c65                	lui	s8,0x19
  ca:	7961                	lui	s2,0xffff8
  cc:	5f00                	lw	s0,56(a4)
  ce:	4f4c                	lw	a1,28(a4)
  d0:	525f4b43          	fmadd.d	fs6,ft10,ft5,fa0,rmm
  d4:	4345                	li	t1,17
  d6:	5255                	li	tp,-11
  d8:	45564953          	0x45564953
  dc:	545f 7400 6372      	0x63727400545f
  e2:	0064                	addi	s1,sp,12
  e4:	6f74                	ld	a3,216(a4)
  e6:	7464                	ld	s1,232(s0)
  e8:	5f68                	lw	a0,124(a4)
  ea:	5f007277          	0x5f007277
  ee:	6572                	ld	a0,280(sp)
  f0:	6461                	lui	s0,0x18
  f2:	5f00                	lw	s0,56(a4)
  f4:	626d                	lui	tp,0x1b
  f6:	6c72                	ld	s8,280(sp)
  f8:	6e65                	lui	t3,0x19
  fa:	735f 6174 6574      	0x65746174735f
 100:	7300                	ld	s0,32(a4)
 102:	6d69                	lui	s10,0x1a
 104:	6c70                	ld	a2,216(s0)
 106:	5f65                	li	t5,-7
 108:	7270                	ld	a2,224(a2)
 10a:	6e69                	lui	t3,0x1a
 10c:	5f74                	lw	a3,124(a4)
 10e:	72616863          	bltu	sp,t1,83e <_tbss_end+0x7da>
 112:	5f00                	lw	s0,56(a4)
 114:	6f647473          	csrrci	s0,0x6f6,8
 118:	7475                	lui	s0,0xffffd
 11a:	5f00                	lw	s0,56(a4)
 11c:	7066                	0x7066
 11e:	745f736f          	jal	t1,f8062 <_tbss_end+0xf7ffe>
 122:	6f00                	ld	s0,24(a4)
 124:	7464                	ld	s1,232(s0)
 126:	655f 006e 6572      	0x6572006e655f
 12c:	5f007367          	0x5f007367
 130:	6e66                	ld	t3,88(sp)
 132:	635f0073          	0x635f0073
 136:	696b6f6f          	jal	t5,b67cc <_tbss_end+0xb6768>
 13a:	0065                	c.nop	25
 13c:	425f 6769 6e69      	0x6e696769425f
 142:	0074                	addi	a3,sp,12
 144:	7274                	ld	a3,224(a2)
 146:	6472                	ld	s0,280(sp)
 148:	7500                	ld	s0,40(a0)
 14a:	7261                	lui	tp,0xffff8
 14c:	3074                	fld	fa3,224(s0)
 14e:	725f 5f78 6863      	0x68635f78725f
 154:	7261                	lui	tp,0xffff8
 156:	5f00                	lw	s0,56(a4)
 158:	745f 5f6d 6477      	0x64775f6d745f
 15e:	7961                	lui	s2,0xffff8
 160:	5f00                	lw	s0,56(a4)
 162:	6572                	ld	a0,280(sp)
 164:	746c7573          	csrrci	a0,0x746,24
 168:	6d00                	ld	s0,24(a0)
 16a:	3172                	fld	ft2,312(sp)
 16c:	615f 006c 6d74      	0x6d74006c615f
 172:	6472                	ld	s0,280(sp)
 174:	5f00                	lw	s0,56(a4)
 176:	745f 5f6d 6f68      	0x6f685f6d745f
 17c:	7275                	lui	tp,0xffffd
 17e:	4700                	lw	s0,8(a4)
 180:	554e                	lw	a0,240(sp)
 182:	4320                	lw	s0,64(a4)
 184:	3939                	addiw	s2,s2,-18
 186:	3720                	fld	fs0,104(a4)
 188:	322e                	fld	ft4,232(sp)
 18a:	302e                	fld	ft0,232(sp)
 18c:	2d20                	fld	fs0,88(a0)
 18e:	636d                	lui	t1,0x1b
 190:	6f6d                	lui	t5,0x1b
 192:	6564                	ld	s1,200(a0)
 194:	3d6c                	fld	fa1,248(a0)
 196:	656d                	lui	a0,0x1b
 198:	6164                	ld	s1,192(a0)
 19a:	796e                	ld	s2,248(sp)
 19c:	2d20                	fld	fs0,88(a0)
 19e:	616d                	addi	sp,sp,240
 1a0:	6372                	ld	t1,280(sp)
 1a2:	3d68                	fld	fa0,248(a0)
 1a4:	7672                	ld	a2,312(sp)
 1a6:	3436                	fld	fs0,360(sp)
 1a8:	6d2d2067          	0x6d2d2067
 1ac:	6261                	lui	tp,0x18
 1ae:	3d69                	addiw	s10,s10,-6
 1b0:	706c                	ld	a1,224(s0)
 1b2:	3436                	fld	fs0,360(sp)
 1b4:	2064                	fld	fs1,192(s0)
 1b6:	672d                	lui	a4,0xb
 1b8:	2d20                	fld	fs0,88(a0)
 1ba:	2d20314f          	0x2d20314f
 1be:	3d647473          	csrrci	s0,0x3d6,8
 1c2:	39756e67          	0x39756e67
 1c6:	2039                	0x2039
 1c8:	662d                	lui	a2,0xb
 1ca:	6166                	ld	sp,88(sp)
 1cc:	6d2d7473          	csrrci	s0,0x6d2,26
 1d0:	7461                	lui	s0,0xffff8
 1d2:	2068                	fld	fa0,192(s0)
 1d4:	662d                	lui	a2,0xb
 1d6:	6f6e                	ld	t5,216(sp)
 1d8:	632d                	lui	t1,0xb
 1da:	6f6d6d6f          	jal	s10,d68d0 <_tbss_end+0xd686c>
 1de:	206e                	fld	ft0,216(sp)
 1e0:	662d                	lui	a2,0xb
 1e2:	6f6e                	ld	t5,216(sp)
 1e4:	622d                	lui	tp,0xb
 1e6:	6975                	lui	s2,0x1d
 1e8:	746c                	ld	a1,232(s0)
 1ea:	6e69                	lui	t3,0x1a
 1ec:	702d                	c.lui	zero,0xfffeb
 1ee:	6972                	ld	s2,280(sp)
 1f0:	746e                	ld	s0,248(sp)
 1f2:	0066                	c.slli	zero,0x19
 1f4:	6374                	ld	a3,192(a4)
 1f6:	695f656b          	0x695f656b
 1fa:	616e                	ld	sp,216(sp)
 1fc:	76697463          	bgeu	s2,t1,964 <_tbss_end+0x900>
 200:	0065                	c.nop	25
 202:	5f636573          	csrrsi	a0,0x5f6,6
 206:	6c727463          	bgeu	tp,t2,8ce <_tbss_end+0x86a>
 20a:	695f 666e 5f6f      	0x5f6f666e695f
 210:	7470                	ld	a2,232(s0)
 212:	0072                	c.slli	zero,0x1c
 214:	7362                	ld	t1,56(sp)
 216:	6c74                	ld	a3,216(s0)
 218:	6e65                	lui	t3,0x19
 21a:	5f00                	lw	s0,56(a4)
 21c:	635f 756f 746e      	0x746e756f635f
 222:	6600                	ld	s0,8(a2)
 224:	6f6c                	ld	a1,216(a4)
 226:	7461                	lui	s0,0xffff8
 228:	7400                	ld	s0,40(s0)
 22a:	6870                	ld	a2,208(s0)
 22c:	5f79                	li	t5,-2
 22e:	61647277          	0x61647277
 232:	6174                	ld	a3,192(a0)
 234:	5f00                	lw	s0,56(a4)
 236:	745f 5f6d 696d      	0x696d5f6d745f
 23c:	006e                	c.slli	zero,0x1b
 23e:	6e5f 7865 6674      	0x667478656e5f
 244:	5f00                	lw	s0,56(a4)
 246:	6172                	ld	sp,280(sp)
 248:	646e                	ld	s0,216(sp)
 24a:	3834                	fld	fa3,112(s0)
 24c:	6400                	ld	s0,8(s0)
 24e:	7264                	ld	s1,224(a2)
 250:	725f 6165 5f6c      	0x5f6c6165725f
 256:	7266                	ld	tp,120(sp)
 258:	7165                	addi	sp,sp,-400
 25a:	7400                	ld	s0,40(s0)
 25c:	6c64                	ld	s1,216(s0)
 25e:	006c                	addi	a1,sp,12
 260:	725f 7365 6c75      	0x6c757365725f
 266:	5f74                	lw	a3,124(a4)
 268:	6f6c006b          	0x6f6c006b
 26c:	676e                	ld	a4,216(sp)
 26e:	6c20                	ld	s0,88(s0)
 270:	20676e6f          	jal	t3,76476 <_tbss_end+0x76412>
 274:	6e75                	lui	t3,0x1d
 276:	6e676973          	csrrsi	s2,0x6e6,14
 27a:	6465                	lui	s0,0x19
 27c:	6920                	ld	s0,80(a0)
 27e:	746e                	ld	s0,248(sp)
 280:	7400                	ld	s0,40(s0)
 282:	00646363          	bltu	s0,t1,288 <_tbss_end+0x224>
 286:	615f 6373 6974      	0x69746373615f
 28c:	656d                	lui	a0,0x1b
 28e:	625f 6675 7300      	0x73006675625f
 294:	6365                	lui	t1,0x19
 296:	6f5f 6666 6573      	0x657366666f5f
 29c:	0074                	addi	a3,sp,12
 29e:	5f5f 4673 4c49      	0x4c4946735f5f
 2a4:	0045                	c.nop	17
 2a6:	775f 7364 6d00      	0x6d007364775f
 2ac:	3072                	fld	ft0,312(sp)
 2ae:	775f 5f72 6174      	0x61745f72775f
 2b4:	6c62                	ld	s8,24(sp)
 2b6:	0065                	c.nop	25
 2b8:	6f74                	ld	a3,216(a4)
 2ba:	7464                	ld	s1,232(s0)
 2bc:	5f6c                	lw	a1,124(a4)
 2be:	6332                	ld	t1,264(sp)
 2c0:	646d                	lui	s0,0x1b
 2c2:	7300                	ld	s0,32(a4)
 2c4:	6372756f          	jal	a0,280fa <_tbss_end+0x28096>
 2c8:	5f65                	li	t5,-7
 2ca:	6164                	ld	s1,192(a0)
 2cc:	6174                	ld	a3,192(a0)
 2ce:	7400                	ld	s0,40(s0)
 2d0:	717a                	ld	sp,440(sp)
 2d2:	6e69                	lui	t3,0x1a
 2d4:	7469                	lui	s0,0xffffa
 2d6:	5f00                	lw	s0,56(a4)
 2d8:	465f 4c49 0045      	0x454c49465f
 2de:	5f5f 6466 696c      	0x696c64665f5f
 2e4:	6d62                	ld	s10,24(sp)
 2e6:	705f 736f 7869      	0x7869736f705f
 2ec:	7300                	ld	s0,32(a4)
 2ee:	7274                	ld	a3,224(a2)
 2f0:	625f 6675 7400      	0x74006675625f
 2f6:	6172                	ld	sp,280(sp)
 2f8:	616d5f73          	csrrwi	t5,0x616,26
 2fc:	0078                	addi	a4,sp,12
 2fe:	726d                	lui	tp,0xffffb
 300:	5f30                	lw	a2,120(a4)
 302:	5f736163          	bltu	t1,s7,8e4 <_tbss_end+0x880>
 306:	6174                	ld	a3,192(a0)
 308:	6c62                	ld	s8,24(sp)
 30a:	0065                	c.nop	25
 30c:	655f 656d 6772      	0x6772656d655f
 312:	6e65                	lui	t3,0x19
 314:	74007963          	bgeu	zero,zero,a66 <_tbss_end+0xa02>
 318:	706d                	c.lui	zero,0xffffb
 31a:	735f 7274 7400      	0x74007274735f
 320:	00727477          	0x727477
 324:	6175                	addi	sp,sp,368
 326:	7472                	ld	s0,312(sp)
 328:	5f30                	lw	a2,120(a4)
 32a:	7874                	ld	a3,240(s0)
 32c:	635f 6168 0072      	0x726168635f
 332:	6674                	ld	a3,200(a2)
 334:	7761                	lui	a4,0xffff8
 336:	5f00                	lw	s0,56(a4)
 338:	745f 5f6d 6573      	0x65735f6d745f
 33e:	75730063          	beq	t1,s7,a7e <_tbss_end+0xa1a>
 342:	6f62                	ld	t5,24(sp)
 344:	7470                	ld	a2,232(s0)
 346:	7261                	lui	tp,0xffff8
 348:	5f5f0067          	jr	1525(t5) # 1b5f5 <_tbss_end+0x1b591>
 34c:	6d74                	ld	a3,216(a0)
 34e:	795f 6164 0079      	0x796164795f
 354:	695f 636e 5f00      	0x5f00636e695f
 35a:	6e69                	lui	t3,0x1a
 35c:	0064                	addi	s1,sp,12
 35e:	6564                	ld	s1,200(a0)
 360:	616c                	ld	a1,192(a0)
 362:	5f79                	li	t5,-2
 364:	5f007773          	csrrci	a4,0x5f0,0
 368:	626d                	lui	tp,0x1b
 36a:	6f747273          	csrrci	tp,0x6f7,8
 36e:	5f736377          	0x5f736377
 372:	74617473          	csrrci	s0,0x746,2
 376:	0065                	c.nop	25
 378:	6564                	ld	s1,200(a0)
 37a:	616c                	ld	a1,192(a0)
 37c:	5f79                	li	t5,-2
 37e:	736d                	lui	t1,0xffffb
 380:	7700                	ld	s0,40(a4)
 382:	5f72                	lw	t5,60(sp)
 384:	7164                	ld	s1,224(a0)
 386:	645f 6c6c 645f      	0x645f6c6c645f
 38c:	6c65                	lui	s8,0x19
 38e:	7961                	lui	s2,0xffff8
 390:	5f00                	lw	s0,56(a4)
 392:	765f 6c61 6575      	0x65756c61765f
 398:	5f00                	lw	s0,56(a4)
 39a:	3570                	fld	fa2,232(a0)
 39c:	72740073          	0x72740073
 3a0:	7074                	ld	a3,224(s0)
 3a2:	7400                	ld	s0,40(s0)
 3a4:	6572                	ld	a0,280(sp)
 3a6:	0066                	c.slli	zero,0x19
 3a8:	775f 7363 7472      	0x74727363775f
 3ae:	73626d6f          	jal	s10,26ae4 <_tbss_end+0x26a80>
 3b2:	735f 6174 6574      	0x65746174735f
 3b8:	5f00                	lw	s0,56(a4)
 3ba:	626d                	lui	tp,0x1b
 3bc:	656c                	ld	a1,200(a0)
 3be:	5f6e                	lw	t5,248(sp)
 3c0:	74617473          	csrrci	s0,0x746,2
 3c4:	0065                	c.nop	25
 3c6:	5f5f 6d74 6d5f      	0x6d5f6d745f5f
 3cc:	6164                	ld	s1,192(a0)
 3ce:	0079                	c.nop	30
 3d0:	735f 6769 665f      	0x665f6769735f
 3d6:	6e75                	lui	t3,0x1d
 3d8:	6d5f0063          	beq	t5,s5,a98 <_tbss_end+0xa34>
 3dc:	7262                	ld	tp,56(sp)
 3de:	6f74                	ld	a3,216(a4)
 3e0:	735f6377          	0x735f6377
 3e4:	6174                	ld	a3,192(a0)
 3e6:	6574                	ld	a3,200(a0)
 3e8:	5f00                	lw	s0,56(a4)
 3ea:	7461                	lui	s0,0xffff8
 3ec:	7865                	lui	a6,0xffff9
 3ee:	7469                	lui	s0,0xffffa
 3f0:	0030                	addi	a2,sp,8
 3f2:	6e69                	lui	t3,0x1a
 3f4:	7469                	lui	s0,0xffffa
 3f6:	632e                	ld	t1,200(sp)
 3f8:	7400                	ld	s0,40(s0)
 3fa:	616c7277          	0x616c7277
 3fe:	5f74                	lw	a3,124(a4)
 400:	6461                	lui	s0,0x18
 402:	006a                	c.slli	zero,0x1a
 404:	665f 6f6c 6b63      	0x6b636f6c665f
 40a:	745f 2f00 6f68      	0x6f682f00745f
 410:	656d                	lui	a0,0x1b
 412:	68717a2f          	0x68717a2f
 416:	7369722f          	0x7369722f
 41a:	2f762d63          	0x2f762d63
 41e:	796d                	lui	s2,0xffffb
 420:	675f 7469 7a2f      	0x7a2f7469675f
 426:	6871                	lui	a6,0x1c
 428:	725f 7369 7663      	0x76637369725f
 42e:	7265762f          	0x7265762f
 432:	6669                	lui	a2,0x1a
 434:	68717a2f          	0x68717a2f
 438:	725f 7369 7663      	0x76637369725f
 43e:	7365742f          	0x7365742f
 442:	7374                	ld	a3,224(a4)
 444:	68717a2f          	0x68717a2f
 448:	725f 7369 7663      	0x76637369725f
 44e:	735f 2f77 6c66      	0x6c662f77735f
 454:	7361                	lui	t1,0xffff8
 456:	5f68                	lw	a0,124(a4)
 458:	6f62                	ld	t5,24(sp)
 45a:	6f6c746f          	jal	s0,c7b50 <_tbss_end+0xc7aec>
 45e:	6461                	lui	s0,0x18
 460:	7265                	lui	tp,0xffff9
 462:	6d00                	ld	s0,24(a0)
 464:	5f79                	li	t5,-2
 466:	7469                	lui	s0,0xffffa
 468:	335f616f          	jal	sp,f6f9c <_tbss_end+0xf6f38>
 46c:	0032                	c.slli	zero,0xc
 46e:	5f5f 6377 0068      	0x6863775f5f
 474:	695f 626f 0073      	0x73626f695f
 47a:	635f 6f6c 6573      	0x65736f6c635f
 480:	5f00                	lw	s0,56(a4)
 482:	735f 6964 6964      	0x69646964735f
 488:	696e                	ld	s2,216(sp)
 48a:	0074                	addi	a3,sp,12
 48c:	7274                	ld	a3,224(a2)
 48e:	6366                	ld	t1,88(sp)
 490:	6d5f 6e69 7300      	0x73006e696d5f
 496:	6365                	lui	t1,0x19
 498:	635f 7274 5f6c      	0x5f6c7274635f
 49e:	6e69                	lui	t3,0x1a
 4a0:	6f66                	ld	t5,88(sp)
 4a2:	6e5f 6d75 7200      	0x72006d756e5f
 4a8:	6c64                	ld	s1,216(s0)
 4aa:	7461                	lui	s0,0xffff8
 4ac:	615f 6a64 5f00      	0x5f006a64615f
 4b2:	69647473          	csrrci	s0,0x696,8
 4b6:	006e                	c.slli	zero,0x1b
 4b8:	675f 6d61 616d      	0x616d6d61675f
 4be:	735f 6769 676e      	0x676e6769735f
 4c4:	6d61                	lui	s10,0x18
 4c6:	6c00                	ld	s0,24(s0)
 4c8:	20676e6f          	jal	t3,766ce <_tbss_end+0x7666a>
 4cc:	6f6c                	ld	a1,216(a4)
 4ce:	676e                	ld	a4,216(sp)
 4d0:	6920                	ld	s0,80(a0)
 4d2:	746e                	ld	s0,248(sp)
 4d4:	7300                	ld	s0,32(a4)
 4d6:	6365                	lui	t1,0x19
 4d8:	645f 7365 5f74      	0x5f747365645f
 4de:	6461                	lui	s0,0x18
 4e0:	7264                	ld	s1,224(a2)
 4e2:	5f00                	lw	s0,56(a4)
 4e4:	7266                	ld	tp,120(sp)
 4e6:	6565                	lui	a0,0x19
 4e8:	696c                	ld	a1,208(a0)
 4ea:	5f007473          	csrrci	s0,0x5f0,0
 4ee:	756d                	lui	a0,0xffffb
 4f0:	746c                	ld	a1,232(s0)
 4f2:	5f00                	lw	s0,56(a4)
 4f4:	555f 6f4c 676e      	0x676e6f4c555f
 4fa:	5f00                	lw	s0,56(a4)
 4fc:	665f 6c64 6269      	0x62696c64665f
 502:	5f6d                	li	t5,-5
 504:	64697673          	csrrci	a2,0x646,18
 508:	7400                	ld	s0,40(s0)
 50a:	717a                	ld	sp,440(sp)
 50c:	5f007363          	bgeu	zero,a6,af2 <_tbss_end+0xa8e>
 510:	74726377          	0x74726377
 514:	5f626d6f          	jal	s10,26b0a <_tbss_end+0x26aa6>
 518:	74617473          	csrrci	s0,0x746,2
 51c:	0065                	c.nop	25
 51e:	665f 6c69 0065      	0x656c69665f
 524:	6564                	ld	s1,200(a0)
 526:	645f7473          	csrrci	s0,0x645,30
 52a:	7461                	lui	s0,0xffff8
 52c:	0061                	c.nop	24
 52e:	7872                	ld	a6,312(sp)
 530:	6164                	ld	s1,192(a0)
 532:	6174                	ld	a3,192(a0)
 534:	5f00                	lw	s0,56(a4)
 536:	635f 656c 6e61      	0x6e61656c635f
 53c:	7075                	c.lui	zero,0xffffd
 53e:	5f00                	lw	s0,56(a4)
 540:	665f 6c64 6269      	0x62696c64665f
 546:	765f 7265 6973      	0x69737265765f
 54c:	5f006e6f          	jal	t3,6b3c <_tbss_end+0x6ad8>
 550:	626d                	lui	tp,0x1b
 552:	74617473          	csrrci	s0,0x746,2
 556:	5f65                	li	t5,-7
 558:	0074                	addi	a3,sp,12
 55a:	5f636573          	csrrsi	a0,0x5f6,6
 55e:	72756f73          	csrrsi	t5,0x727,10
 562:	615f6563          	bltu	t5,s5,b6c <_tbss_end+0xb08>
 566:	6464                	ld	s1,200(s0)
 568:	0072                	c.slli	zero,0x1c
 56a:	7270                	ld	a2,224(a2)
 56c:	6172676f          	jal	a4,27382 <_tbss_end+0x2731e>
 570:	5f6d                	li	t5,-5
 572:	72617473          	csrrci	s0,0x726,2
 576:	5f74                	lw	a3,124(a4)
 578:	6461                	lui	s0,0x18
 57a:	7264                	ld	s1,224(a2)
 57c:	7365                	lui	t1,0xffff9
 57e:	665f0073          	0x665f0073
 582:	616e                	ld	sp,216(sp)
 584:	6772                	ld	a4,280(sp)
 586:	5f5f0073          	0x5f5f0073
 58a:	6d74                	ld	a3,216(a0)
 58c:	695f 6473 7473      	0x74736473695f
 592:	5f00                	lw	s0,56(a4)
 594:	5f68                	lw	a0,124(a4)
 596:	7265                	lui	tp,0xffff9
 598:	6e72                	ld	t3,280(sp)
 59a:	7874006f          	j	41520 <_tbss_end+0x414bc>
 59e:	00726e73          	csrrsi	t3,0x7,4
 5a2:	7768                	ld	a0,232(a4)
 5a4:	695f 696e 0074      	0x74696e695f
 5aa:	6f64                	ld	s1,216(a4)
 5ac:	656e                	ld	a0,216(sp)
 5ae:	6800                	ld	s0,16(s0)
 5b0:	6e61                	lui	t3,0x18
 5b2:	6c64                	ld	s1,216(s0)
 5b4:	5f65                	li	t5,-7
 5b6:	7274                	ld	a3,224(a2)
 5b8:	7061                	c.lui	zero,0xffff8
 5ba:	7300                	ld	s0,32(a4)
 5bc:	6365                	lui	t1,0x19
 5be:	6c5f 6e65 5f00      	0x5f006e656c5f
 5c4:	745f 5f6d 6f6d      	0x6f6d5f6d745f
 5ca:	006e                	c.slli	zero,0x1b
 5cc:	6c64                	ld	s1,216(s0)
 5ce:	5f6c                	lw	a1,124(a4)
 5d0:	0066666f          	jal	a2,665d6 <_tbss_end+0x66572>
 5d4:	6f6c                	ld	a1,216(a4)
 5d6:	676e                	ld	a4,216(sp)
 5d8:	6420                	ld	s0,72(s0)
 5da:	6c62756f          	jal	a0,27ca0 <_tbss_end+0x27c3c>
 5de:	0065                	c.nop	25
 5e0:	775f 6972 6574      	0x65746972775f
 5e6:	7300                	ld	s0,32(a4)
 5e8:	6d69                	lui	s10,0x1a
 5ea:	6c70                	ld	a2,216(s0)
 5ec:	5f65                	li	t5,-7
 5ee:	6175                	addi	sp,sp,368
 5f0:	7472                	ld	s0,312(sp)
 5f2:	5f30                	lw	a2,120(a4)
 5f4:	5f746567          	0x5f746567
 5f8:	00727473          	csrrci	s0,0x7,4
 5fc:	5f5f 6975 746e      	0x746e69755f5f
 602:	7470                	ld	a2,232(s0)
 604:	5f72                	lw	t5,60(sp)
 606:	0074                	addi	a3,sp,12
 608:	615f 6574 6978      	0x69786574615f
 60e:	0074                	addi	a3,sp,12
 610:	6d5f 7362 6174      	0x617473626d5f
 616:	6574                	ld	a3,200(a0)
 618:	7300                	ld	s0,32(a4)
 61a:	6365                	lui	t1,0x19
 61c:	745f 7079 0065      	0x657079745f
 622:	726f6873          	csrrsi	a6,0x726,30
 626:	2074                	fld	fa3,192(s0)
 628:	6e69                	lui	t3,0x1a
 62a:	0074                	addi	a3,sp,12
 62c:	6f62                	ld	t5,24(sp)
 62e:	695f746f          	jal	s0,f84c2 <_tbss_end+0xf845e>
 632:	696e                	ld	s2,216(sp)
 634:	0074                	addi	a3,sp,12
 636:	6472                	ld	s0,280(sp)
 638:	645f 7371 645f      	0x645f7371645f
 63e:	6c6c                	ld	a1,216(s0)
 640:	645f 6c65 7961      	0x79616c65645f
 646:	6400                	ld	s0,8(s0)
 648:	7264                	ld	s1,224(a2)
 64a:	695f 696e 0074      	0x74696e695f
 650:	5f5f 6673 5f00      	0x5f0066735f5f
 656:	6e676973          	csrrsi	s2,0x6e6,14
 65a:	6d00                	ld	s0,24(a0)
 65c:	3172                	fld	ft2,312(sp)
 65e:	725f 7474 6e5f      	0x6e5f7474725f
 664:	5f006d6f          	jal	s10,6c54 <_tbss_end+0x6bf0>
 668:	775f 6863 0062      	0x626863775f
 66e:	675f 6f6c 6162      	0x61626f6c675f
 674:	5f6c                	lw	a1,124(a4)
 676:	6d69                	lui	s10,0x1a
 678:	7570                	ld	a2,232(a0)
 67a:	6572                	ld	a0,280(sp)
 67c:	705f 7274 5f00      	0x5f007274705f
 682:	745f 5f6d 6579      	0x65795f6d745f
 688:	7261                	lui	tp,0xffff8
 68a:	7400                	ld	s0,40(s0)
 68c:	7372                	ld	t1,312(sp)
 68e:	5f74                	lw	a3,124(a4)
 690:	006e                	c.slli	zero,0x1b
 692:	5f5f 6466 696c      	0x696c64665f5f
 698:	6d62                	ld	s10,24(sp)
 69a:	695f 6565 0065      	0x656565695f
 6a0:	6572                	ld	a0,280(sp)
 6a2:	5f74                	lw	a3,124(a4)
 6a4:	0076                	c.slli	zero,0x1d
 6a6:	6c5f 636f 6c61      	0x6c61636f6c5f
 6ac:	6974                	ld	a3,208(a0)
 6ae:	656d                	lui	a0,0x1b
 6b0:	625f 6675 5f00      	0x5f006675625f
 6b6:	6e75                	lui	t3,0x1d
 6b8:	7375                	lui	t1,0xffffd
 6ba:	6465                	lui	s0,0x19
 6bc:	5f00                	lw	s0,56(a4)
 6be:	755f 6e69 3874      	0x38746e69755f
 6c4:	745f 5f00 656e      	0x656e5f00745f
 6ca:	635f0077          	0x635f0077
 6ce:	7476                	ld	s0,376(sp)
 6d0:	656c                	ld	a1,200(a0)
 6d2:	006e                	c.slli	zero,0x1b
 6d4:	6d5f 7861 6477      	0x647778616d5f
 6da:	6c5f0073          	0x6c5f0073
 6de:	3436                	fld	fs0,360(sp)
 6e0:	5f61                	li	t5,-8
 6e2:	7562                	ld	a0,56(sp)
 6e4:	0066                	c.slli	zero,0x19
 6e6:	6374                	ld	a3,192(a4)
 6e8:	5f00656b          	0x5f00656b
 6ec:	6c62                	ld	s8,24(sp)
 6ee:	7a69736b          	0x7a69736b
 6f2:	0065                	c.nop	25
 6f4:	5f5f 6d74 5f00      	0x5f006d745f5f
 6fa:	6f6c                	ld	a1,216(a4)
 6fc:	74006b63          	bltu	zero,zero,e52 <_tbss_end+0xdee>
 700:	6874646f          	jal	s0,47586 <_tbss_end+0x47522>
 704:	725f 0064 6e5f      	0x6e5f0064725f
 70a:	6f69                	lui	t5,0x1a
 70c:	7362                	ld	t1,56(sp)
 70e:	7700                	ld	s0,40(a4)
 710:	6e69                	lui	t3,0x1a
 712:	5f74                	lw	a3,124(a4)
 714:	0074                	addi	a3,sp,12
 716:	3269                	addiw	tp,tp,-6
 718:	5f61                	li	t5,-8
 71a:	6174                	ld	a3,192(a0)
 71c:	0062                	c.slli	zero,0x18
 71e:	6474                	ld	a3,200(s0)
 720:	6966                	ld	s2,88(sp)
 722:	635f 7274 5f6c      	0x5f6c7274635f
 728:	6564                	ld	s1,200(a0)
 72a:	616c                	ld	a1,192(a0)
 72c:	0079                	c.nop	30
 72e:	645f 6f73 685f      	0x685f6f73645f
 734:	6e61                	lui	t3,0x18
 736:	6c64                	ld	s1,216(s0)
 738:	0065                	c.nop	25
 73a:	635f 7476 7562      	0x75627476635f
 740:	0066                	c.slli	zero,0x19
 742:	6e75                	lui	t3,0x1d
 744:	6e676973          	csrrsi	s2,0x6e6,14
 748:	6465                	lui	s0,0x19
 74a:	6320                	ld	s0,64(a4)
 74c:	6168                	ld	a0,192(a0)
 74e:	0072                	c.slli	zero,0x1c
 750:	5f5f 6975 746e      	0x746e69755f5f
 756:	745f3233          	0x745f3233
 75a:	5f00                	lw	s0,56(a4)
 75c:	64746567          	0x64746567
 760:	7461                	lui	s0,0xffff8
 762:	5f65                	li	t5,-7
 764:	7265                	lui	tp,0xffff9
 766:	0072                	c.slli	zero,0x1c
 768:	6c64                	ld	s1,216(s0)
 76a:	5f6c                	lw	a1,124(a4)
 76c:	7372                	ld	t1,312(sp)
 76e:	5f74                	lw	a3,124(a4)
 770:	6564                	ld	s1,200(a0)
 772:	616c                	ld	a1,192(a0)
 774:	0079                	c.nop	30
 776:	615f 6464 7400      	0x74006464615f
 77c:	717a                	ld	sp,440(sp)
 77e:	64006c63          	bltu	zero,zero,dd6 <_tbss_end+0xd72>
 782:	7264                	ld	s1,224(a2)
 784:	6d5f 5f63 6572      	0x65725f636d5f
 78a:	5f5f0067          	jr	1525(t5) # 1a5f5 <_tbss_end+0x1a591>
 78e:	66756273          	csrrsi	tp,0x667,10
 792:	7000                	ld	s0,32(s0)
 794:	6c6c                	ld	a1,216(s0)
 796:	695f 696e 0074      	0x74696e695f
 79c:	675f 756c 0065      	0x65756c675f
 7a2:	5f5f 6466 696c      	0x696c64665f5f
 7a8:	6d62                	ld	s10,24(sp)
 7aa:	765f 7265 6973      	0x69737265765f
 7b0:	5f006e6f          	jal	t3,6da0 <_tbss_end+0x6d3c>
 7b4:	735f 6c67 6575      	0x65756c67735f
 7ba:	5f00                	lw	s0,56(a4)
 7bc:	74727473          	csrrci	s0,0x747,4
 7c0:	6c5f6b6f          	jal	s6,f7684 <_tbss_end+0xf7620>
 7c4:	7361                	lui	t1,0xffff8
 7c6:	0074                	addi	a3,sp,12
 7c8:	6d5f 7462 776f      	0x776f74626d5f
 7ce:	74735f63          	bge	t1,t2,f2c <_tbss_end+0xec8>
 7d2:	7461                	lui	s0,0xffff8
 7d4:	0065                	c.nop	25
 7d6:	6c5f 636f 6c61      	0x6c61636f6c5f
 7dc:	0065                	c.nop	25
 7de:	726d                	lui	tp,0xffffb
 7e0:	5f32                	lw	t5,44(sp)
 7e2:	006c7763          	bgeu	s8,t1,7f0 <_tbss_end+0x78c>
 7e6:	735f 6973 657a      	0x657a6973735f
 7ec:	745f 5f00 6572      	0x65725f00745f
 7f2:	6e65                	lui	t3,0x19
 7f4:	0074                	addi	a3,sp,12
 7f6:	726f6873          	csrrsi	a6,0x726,30
 7fa:	2074                	fld	fa3,192(s0)
 7fc:	6e75                	lui	t3,0x1d
 7fe:	6e676973          	csrrsi	s2,0x6e6,14
 802:	6465                	lui	s0,0x19
 804:	6920                	ld	s0,80(a0)
 806:	746e                	ld	s0,248(sp)
 808:	5f00                	lw	s0,56(a4)
 80a:	745f 706d 5f00      	0x5f00706d745f
 810:	6e66                	ld	t3,88(sp)
 812:	7974                	ld	a3,240(a0)
 814:	6570                	ld	a2,200(a0)
 816:	735f0073          	0x735f0073
 81a:	7a69                	lui	s4,0xffffa
 81c:	0065                	c.nop	25
 81e:	6f5f 6666 745f      	0x745f66666f5f
 824:	5f00                	lw	s0,56(a4)
 826:	626e                	ld	tp,216(sp)
 828:	6675                	lui	a2,0x1d
 82a:	5f00                	lw	s0,56(a4)
 82c:	6e75                	lui	t3,0x1d
 82e:	7375                	lui	t1,0xffffd
 830:	6465                	lui	s0,0x19
 832:	725f 6e61 0064      	0x646e61725f
 838:	7274                	ld	a3,224(a2)
 83a:	6366                	ld	t1,88(sp)
 83c:	6d5f 7861 6400      	0x640078616d5f
 842:	7365                	lui	t1,0xffff9
 844:	5f74                	lw	a3,124(a4)
 846:	7470                	ld	a2,232(s0)
 848:	5f72                	lw	t5,60(sp)
 84a:	6162                	ld	sp,24(sp)
 84c:	5f006573          	csrrsi	a0,0x5f0,0
 850:	6e75                	lui	t3,0x1d
 852:	63657073          	csrci	0x636,10
 856:	6669                	lui	a2,0x1a
 858:	6569                	lui	a0,0x1a
 85a:	5f64                	lw	s1,124(a4)
 85c:	6f6c                	ld	a1,216(a4)
 85e:	656c6163          	bltu	s8,s6,ea0 <_tbss_end+0xe3c>
 862:	695f 666e 006f      	0x6f666e695f
 868:	665f 616c 7367      	0x7367616c665f
 86e:	0032                	c.slli	zero,0xc
 870:	695f 5f73 7863      	0x78635f73695f
 876:	0061                	c.nop	24
 878:	735f 6565 0064      	0x646565735f
 87e:	725f 6e61 5f64      	0x5f646e61725f
 884:	656e                	ld	a0,216(sp)
 886:	7478                	ld	a4,232(s0)
 888:	5f00                	lw	s0,56(a4)
 88a:	6c5f 636f 6c61      	0x6c61636f6c5f
 890:	5f65                	li	t5,-7
 892:	0074                	addi	a3,sp,12
 894:	735f 6565 006b      	0x6b6565735f
 89a:	735f 6474 7265      	0x72656474735f
 8a0:	0072                	c.slli	zero,0x1c
 8a2:	6e5f 616d 6c6c      	0x6c6c616d6e5f
 8a8:	5f00636f          	jal	t1,6e98 <_tbss_end+0x6e34>
 8ac:	6275                	lui	tp,0x1d
 8ae:	6675                	lui	a2,0x1d
 8b0:	6200                	ld	s0,0(a2)
 8b2:	6c746f6f          	jal	t5,47778 <_tbss_end+0x47714>
 8b6:	6564616f          	jal	sp,46f0c <_tbss_end+0x46ea8>
 8ba:	2e72                	fld	ft8,280(sp)
 8bc:	4e470053          	0x4e470053
 8c0:	2055                	0x2055
 8c2:	5341                	li	t1,-16
 8c4:	3220                	fld	fs0,96(a2)
 8c6:	332e                	fld	ft6,232(sp)
 8c8:	30352e33          	0x30352e33
 8cc:	00              	Address 0x00000000000008cc is out of bounds.


Disassembly of section .comment:

0000000000000000 <.comment>:
   0:	3a434347          	fmsub.d	ft6,ft6,ft4,ft7,rmm
   4:	2820                	fld	fs0,80(s0)
   6:	29554e47          	fmsub.s	ft8,fa0,fs5,ft5,rmm
   a:	3720                	fld	fs0,104(a4)
   c:	322e                	fld	ft4,232(sp)
   e:	302e                	fld	ft0,232(sp)
  10:	00              	Address 0x0000000000000010 is out of bounds.


Disassembly of section .riscv.attributes:

0000000000000000 <.riscv.attributes>:
   0:	2d41                	addiw	s10,s10,16
   2:	0000                	unimp
   4:	7200                	ld	s0,32(a2)
   6:	7369                	lui	t1,0xffffa
   8:	01007663          	bgeu	zero,a6,14 <_tdata_begin+0x14>
   c:	00000023          	sb	zero,0(zero) # 0 <_tdata_begin>
  10:	7205                	lui	tp,0xfffe1
  12:	3676                	fld	fa2,376(sp)
  14:	6934                	ld	a3,80(a0)
  16:	7032                	0x7032
  18:	5f30                	lw	a2,120(a4)
  1a:	326d                	addiw	tp,tp,-5
  1c:	3070                	fld	fa2,224(s0)
  1e:	615f 7032 5f30      	0x5f307032615f
  24:	3266                	fld	ft4,120(sp)
  26:	3070                	fld	fa2,224(s0)
  28:	645f 7032 0030      	0x307032645f

Disassembly of section .debug_frame:

0000000000000000 <.debug_frame>:
   0:	000c                	0xc
   2:	0000                	unimp
   4:	ffff                	0xffff
   6:	ffff                	0xffff
   8:	0001                	nop
   a:	7c01                	lui	s8,0xfffe0
   c:	0d01                	addi	s10,s10,0
   e:	0002                	c.slli64	zero
  10:	0014                	0x14
  12:	0000                	unimp
  14:	0000                	unimp
  16:	0000                	unimp
  18:	027c                	addi	a5,sp,268
  1a:	4000                	lw	s0,0(s0)
  1c:	0000                	unimp
  1e:	0000                	unimp
  20:	0018                	0x18
  22:	0000                	unimp
  24:	0000                	unimp
  26:	0000                	unimp
  28:	0014                	0x14
  2a:	0000                	unimp
  2c:	0000                	unimp
  2e:	0000                	unimp
  30:	0294                	addi	a3,sp,320
  32:	4000                	lw	s0,0(s0)
  34:	0000                	unimp
  36:	0000                	unimp
  38:	0030                	addi	a2,sp,8
  3a:	0000                	unimp
  3c:	0000                	unimp
  3e:	0000                	unimp
  40:	0014                	0x14
  42:	0000                	unimp
  44:	0000                	unimp
  46:	0000                	unimp
  48:	02c4                	addi	s1,sp,324
  4a:	4000                	lw	s0,0(s0)
  4c:	0000                	unimp
  4e:	0000                	unimp
  50:	0070                	addi	a2,sp,12
  52:	0000                	unimp
  54:	0000                	unimp
  56:	0000                	unimp
  58:	0014                	0x14
  5a:	0000                	unimp
  5c:	0000                	unimp
  5e:	0000                	unimp
  60:	0334                	addi	a3,sp,392
  62:	4000                	lw	s0,0(s0)
  64:	0000                	unimp
  66:	0000                	unimp
  68:	0028                	addi	a0,sp,8
  6a:	0000                	unimp
  6c:	0000                	unimp
  6e:	0000                	unimp
  70:	0014                	0x14
  72:	0000                	unimp
  74:	0000                	unimp
  76:	0000                	unimp
  78:	035c                	addi	a5,sp,388
  7a:	4000                	lw	s0,0(s0)
  7c:	0000                	unimp
  7e:	0000                	unimp
  80:	001c                	0x1c
  82:	0000                	unimp
  84:	0000                	unimp
  86:	0000                	unimp
  88:	0014                	0x14
  8a:	0000                	unimp
  8c:	0000                	unimp
  8e:	0000                	unimp
  90:	0378                	addi	a4,sp,396
  92:	4000                	lw	s0,0(s0)
  94:	0000                	unimp
  96:	0000                	unimp
  98:	0024                	addi	s1,sp,8
  9a:	0000                	unimp
  9c:	0000                	unimp
  9e:	0000                	unimp
  a0:	0014                	0x14
  a2:	0000                	unimp
  a4:	0000                	unimp
  a6:	0000                	unimp
  a8:	039c                	addi	a5,sp,448
  aa:	4000                	lw	s0,0(s0)
  ac:	0000                	unimp
  ae:	0000                	unimp
  b0:	0040                	addi	s0,sp,4
  b2:	0000                	unimp
  b4:	0000                	unimp
  b6:	0000                	unimp
  b8:	0024                	addi	s1,sp,8
  ba:	0000                	unimp
  bc:	0000                	unimp
  be:	0000                	unimp
  c0:	03dc                	addi	a5,sp,452
  c2:	4000                	lw	s0,0(s0)
  c4:	0000                	unimp
  c6:	0000                	unimp
  c8:	0058                	addi	a4,sp,4
  ca:	0000                	unimp
  cc:	0000                	unimp
  ce:	0000                	unimp
  d0:	0e44                	addi	s1,sp,788
  d2:	4810                	lw	a2,16(s0)
  d4:	0281                	addi	t0,t0,0
  d6:	0488                	addi	a0,sp,576
  d8:	4002                	0x4002
  da:	44c1                	li	s1,16
  dc:	44c8                	lw	a0,12(s1)
  de:	000e                	c.slli	zero,0x3
  e0:	0034                	addi	a3,sp,8
  e2:	0000                	unimp
  e4:	0000                	unimp
  e6:	0000                	unimp
  e8:	0434                	addi	a3,sp,520
  ea:	4000                	lw	s0,0(s0)
  ec:	0000                	unimp
  ee:	0000                	unimp
  f0:	0098                	addi	a4,sp,64
  f2:	0000                	unimp
  f4:	0000                	unimp
  f6:	0000                	unimp
  f8:	0e44                	addi	s1,sp,788
  fa:	5830                	lw	a2,112(s0)
  fc:	0281                	addi	t0,t0,0
  fe:	0488                	addi	a0,sp,576
 100:	0689                	addi	a3,a3,2
 102:	0892                	slli	a7,a7,0x4
 104:	0c940a93          	addi	s5,s0,201 # 190c9 <_tbss_end+0x19065>
 108:	6002                	0x6002
 10a:	44c1                	li	s1,16
 10c:	44c8                	lw	a0,12(s1)
 10e:	44c9                	li	s1,18
 110:	44d2                	lw	s1,20(sp)
 112:	44d444d3          	0x44d444d3
 116:	000e                	c.slli	zero,0x3
 118:	0014                	0x14
 11a:	0000                	unimp
 11c:	0000                	unimp
 11e:	0000                	unimp
 120:	04cc                	addi	a1,sp,580
 122:	4000                	lw	s0,0(s0)
 124:	0000                	unimp
 126:	0000                	unimp
 128:	0014                	0x14
 12a:	0000                	unimp
 12c:	0000                	unimp
 12e:	0000                	unimp
 130:	003c                	addi	a5,sp,8
 132:	0000                	unimp
 134:	0000                	unimp
 136:	0000                	unimp
 138:	04e0                	addi	s0,sp,588
 13a:	4000                	lw	s0,0(s0)
 13c:	0000                	unimp
 13e:	0000                	unimp
 140:	02cc                	addi	a1,sp,324
 142:	0000                	unimp
 144:	0000                	unimp
 146:	0000                	unimp
 148:	0e44                	addi	s1,sp,788
 14a:	5830                	lw	a2,112(s0)
 14c:	0281                	addi	t0,t0,0
 14e:	0488                	addi	a0,sp,576
 150:	0689                	addi	a3,a3,2
 152:	0892                	slli	a7,a7,0x4
 154:	0c940a93          	addi	s5,s0,201
 158:	c1029403          	lh	s0,-1008(t0) # 1940b2 <_tbss_end+0x19404e>
 15c:	c844                	sw	s1,20(s0)
 15e:	c944                	sw	s1,20(a0)
 160:	d244                	sw	s1,36(a2)
 162:	d344                	sw	s1,36(a4)
 164:	d444                	sw	s1,44(s0)
 166:	0e44                	addi	s1,sp,788
 168:	0000                	unimp
 16a:	0000                	unimp
 16c:	0000                	unimp
 16e:	0000                	unimp
 170:	0014                	0x14
 172:	0000                	unimp
 174:	0000                	unimp
 176:	0000                	unimp
 178:	07ac                	addi	a1,sp,968
 17a:	4000                	lw	s0,0(s0)
 17c:	0000                	unimp
 17e:	0000                	unimp
 180:	000c                	0xc
 182:	0000                	unimp
 184:	0000                	unimp
 186:	0000                	unimp
 188:	0014                	0x14
 18a:	0000                	unimp
 18c:	0000                	unimp
 18e:	0000                	unimp
 190:	07b8                	addi	a4,sp,968
 192:	4000                	lw	s0,0(s0)
 194:	0000                	unimp
 196:	0000                	unimp
 198:	0034                	addi	a3,sp,8
 19a:	0000                	unimp
 19c:	0000                	unimp
 19e:	0000                	unimp
 1a0:	0024                	addi	s1,sp,8
 1a2:	0000                	unimp
 1a4:	0000                	unimp
 1a6:	0000                	unimp
 1a8:	07ec                	addi	a1,sp,972
 1aa:	4000                	lw	s0,0(s0)
 1ac:	0000                	unimp
 1ae:	0000                	unimp
 1b0:	0028                	addi	a0,sp,8
 1b2:	0000                	unimp
 1b4:	0000                	unimp
 1b6:	0000                	unimp
 1b8:	0e50                	addi	a2,sp,788
 1ba:	4410                	lw	a2,8(s0)
 1bc:	0281                	addi	t0,t0,0
 1be:	c14c                	sw	a1,4(a0)
 1c0:	0e44                	addi	s1,sp,788
 1c2:	0000                	unimp
 1c4:	0000                	unimp
 1c6:	0000                	unimp
 1c8:	0024                	addi	s1,sp,8
 1ca:	0000                	unimp
 1cc:	0000                	unimp
 1ce:	0000                	unimp
 1d0:	0814                	addi	a3,sp,16
 1d2:	4000                	lw	s0,0(s0)
 1d4:	0000                	unimp
 1d6:	0000                	unimp
 1d8:	0028                	addi	a0,sp,8
 1da:	0000                	unimp
 1dc:	0000                	unimp
 1de:	0000                	unimp
 1e0:	0e44                	addi	s1,sp,788
 1e2:	4410                	lw	a2,8(s0)
 1e4:	0281                	addi	t0,t0,0
 1e6:	c158                	sw	a4,4(a0)
 1e8:	0e44                	addi	s1,sp,788
 1ea:	0000                	unimp
 1ec:	0000                	unimp
 1ee:	0000                	unimp
 1f0:	0024                	addi	s1,sp,8
 1f2:	0000                	unimp
 1f4:	0000                	unimp
 1f6:	0000                	unimp
 1f8:	083c                	addi	a5,sp,24
 1fa:	4000                	lw	s0,0(s0)
 1fc:	0000                	unimp
 1fe:	0000                	unimp
 200:	0020                	addi	s0,sp,8
 202:	0000                	unimp
 204:	0000                	unimp
 206:	0000                	unimp
 208:	0e44                	addi	s1,sp,788
 20a:	4410                	lw	a2,8(s0)
 20c:	0281                	addi	t0,t0,0
 20e:	c150                	sw	a2,4(a0)
 210:	0e44                	addi	s1,sp,788
 212:	0000                	unimp
 214:	0000                	unimp
 216:	0000                	unimp
 218:	002c                	addi	a1,sp,8
 21a:	0000                	unimp
 21c:	0000                	unimp
 21e:	0000                	unimp
 220:	085c                	addi	a5,sp,20
 222:	4000                	lw	s0,0(s0)
 224:	0000                	unimp
 226:	0000                	unimp
 228:	0088                	addi	a0,sp,64
 22a:	0000                	unimp
 22c:	0000                	unimp
 22e:	0000                	unimp
 230:	0e44                	addi	s1,sp,788
 232:	5020                	lw	s0,96(s0)
 234:	0281                	addi	t0,t0,0
 236:	0488                	addi	a0,sp,576
 238:	0689                	addi	a3,a3,2
 23a:	0892                	slli	a7,a7,0x4
 23c:	6002                	0x6002
 23e:	44c1                	li	s1,16
 240:	44c8                	lw	a0,12(s1)
 242:	44c9                	li	s1,18
 244:	44d2                	lw	s1,20(sp)
 246:	000e                	c.slli	zero,0x3
